

Microchip MPLAB XC8 Assembler V2.05 build -831301201 
                                                                                               Mon Feb 01 10:28:27 2021

Microchip MPLAB XC8 C Compiler v2.05 (Free license) build 20181220022703 Og1 
     1                           	processor	16F1575
     2                           	opt	pw 120
     3                           	opt	flic
     4                           	psect	idataBANK0,global,class=CODE,delta=2
     5                           	psect	stringtext1,global,class=STRCODE,delta=2
     6                           	psect	nvBANK0,global,class=BANK0,space=1,delta=1
     7                           	psect	nvBANK1,global,class=BANK1,space=1,delta=1
     8                           	psect	stringtext2,global,class=STRCODE,delta=2
     9                           	psect	stringtext3,global,class=STRCODE,delta=2
    10                           	psect	stringtext4,global,class=STRCODE,delta=2
    11                           	psect	stringtext5,global,class=STRCODE,delta=2
    12                           	psect	stringtext6,global,class=STRCODE,delta=2
    13                           	psect	cinit,global,class=CODE,merge=1,delta=2
    14                           	psect	bssBANK0,global,class=BANK0,space=1,delta=1
    15                           	psect	dataBANK0,global,class=BANK0,space=1,delta=1
    16                           	psect	cstackCOMMON,global,class=COMMON,space=1,delta=1
    17                           	psect	cstackBANK0,global,class=BANK0,space=1,delta=1
    18                           	psect	maintext,global,class=CODE,merge=1,split=1,delta=2
    19                           	psect	text1,local,class=CODE,merge=1,delta=2
    20                           	psect	text2,local,class=CODE,merge=1,delta=2
    21                           	psect	text3,local,class=CODE,merge=1,delta=2
    22                           	psect	text4,local,class=CODE,merge=1,delta=2
    23                           	psect	text5,local,class=CODE,merge=1,delta=2
    24                           	psect	text6,local,class=CODE,merge=1,delta=2
    25                           	psect	text7,local,class=CODE,merge=1,delta=2
    26                           	psect	text8,local,class=CODE,merge=1,delta=2
    27                           	psect	text9,local,class=CODE,merge=1,delta=2
    28                           	psect	text10,local,class=CODE,merge=1,delta=2
    29                           	psect	text11,local,class=CODE,merge=1,delta=2
    30                           	psect	text12,local,class=CODE,merge=1,delta=2
    31                           	psect	text13,local,class=CODE,merge=1,delta=2
    32                           	psect	text14,local,class=CODE,merge=1,delta=2
    33                           	psect	text15,local,class=CODE,merge=1,delta=2
    34                           	psect	text16,local,class=CODE,merge=1,delta=2
    35                           	psect	text17,local,class=CODE,merge=1,delta=2
    36                           	psect	text18,local,class=CODE,merge=1,delta=2
    37                           	psect	text19,local,class=CODE,merge=1,delta=2,group=1
    38                           	psect	text20,local,class=CODE,merge=1,delta=2,group=1
    39                           	psect	text21,local,class=CODE,merge=1,delta=2
    40                           	psect	text22,local,class=CODE,merge=1,delta=2
    41                           	psect	text23,local,class=CODE,merge=1,delta=2
    42                           	psect	text24,local,class=CODE,merge=1,delta=2
    43                           	psect	text25,local,class=CODE,merge=1,delta=2
    44                           	psect	text26,local,class=CODE,merge=1,delta=2
    45                           	psect	text27,local,class=CODE,merge=1,delta=2
    46                           	psect	text28,local,class=CODE,merge=1,delta=2
    47                           	psect	intentry,global,class=CODE,delta=2
    48                           	psect	text30,local,class=CODE,merge=1,delta=2
    49                           	psect	text31,local,class=CODE,merge=1,delta=2
    50                           	psect	text32,local,class=CODE,merge=1,delta=2
    51                           	psect	text33,local,class=CODE,merge=1,delta=2
    52                           	psect	text34,local,class=CODE,merge=1,delta=2
    53                           	dabs	1,0x7E,2
    54  0000                     
    55                           ; Version 2.05
    56                           ; Generated 20/12/2018 GMT
    57                           ; 
    58                           ; Copyright © 2018, Microchip Technology Inc. and its subsidiaries ("Microchip")
    59                           ; All rights reserved.
    60                           ; 
    61                           ; This software is developed by Microchip Technology Inc. and its subsidiaries ("Microch
      +                          ip").
    62                           ; 
    63                           ; Redistribution and use in source and binary forms, with or without modification, are
    64                           ; permitted provided that the following conditions are met:
    65                           ; 
    66                           ;     1. Redistributions of source code must retain the above copyright notice, this lis
      +                          t of
    67                           ;        conditions and the following disclaimer.
    68                           ; 
    69                           ;     2. Redistributions in binary form must reproduce the above copyright notice, this 
      +                          list
    70                           ;        of conditions and the following disclaimer in the documentation and/or other
    71                           ;        materials provided with the distribution.
    72                           ; 
    73                           ;     3. Microchip's name may not be used to endorse or promote products derived from th
      +                          is
    74                           ;        software without specific prior written permission.
    75                           ; 
    76                           ; THIS SOFTWARE IS PROVIDED BY MICROCHIP "AS IS" AND ANY EXPRESS OR IMPLIED WARRANTIES,
    77                           ; INCLUDING, BUT NOT LIMITED TO, THE IMPLIED WARRANTIES OF MERCHANTABILITY AND FITNESS F
      +                          OR
    78                           ; PURPOSE ARE DISCLAIMED.  IN NO EVENT SHALL MICROCHIP BE LIABLE FOR ANY DIRECT, INDIREC
      +                          T,
    79                           ; INCIDENTAL, SPECIAL, EXEMPLARY, OR CONSEQUENTIAL DAMAGES (INCLUDING BUT NOT LIMITED TO
    80                           ; PROCUREMENT OF SUBSTITUTE GOODS OR SERVICES; LOSS OF USE, DATA OR PROFITS; OR BUSINESS
    81                           ; INTERRUPTION) HOWSOEVER CAUSED AND ON ANY THEORY OF LIABILITY, WHETHER IN CONTRACT, ST
      +                          RICT
    82                           ; LIABILITY, OR TORT (INCLUDING NEGLIGENCE OR OTHERWISE) ARISING IN ANY WAY OUT OF THE U
      +                          SE OF
    83                           ; THIS SOFTWARE, EVEN IF ADVISED OF THE POSSIBILITY OF SUCH DAMAGE.
    84                           ; 
    85                           ; 
    86                           ; Code-generator required, PIC16F1575 Definitions
    87                           ; 
    88                           ; SFR Addresses
    89  0000                     	;# 
    90  0001                     	;# 
    91  0002                     	;# 
    92  0003                     	;# 
    93  0004                     	;# 
    94  0005                     	;# 
    95  0006                     	;# 
    96  0007                     	;# 
    97  0008                     	;# 
    98  0009                     	;# 
    99  000A                     	;# 
   100  000B                     	;# 
   101  000C                     	;# 
   102  000E                     	;# 
   103  0011                     	;# 
   104  0012                     	;# 
   105  0013                     	;# 
   106  0015                     	;# 
   107  0016                     	;# 
   108  0016                     	;# 
   109  0017                     	;# 
   110  0018                     	;# 
   111  0019                     	;# 
   112  001A                     	;# 
   113  001B                     	;# 
   114  001C                     	;# 
   115  008C                     	;# 
   116  008E                     	;# 
   117  0091                     	;# 
   118  0092                     	;# 
   119  0093                     	;# 
   120  0095                     	;# 
   121  0096                     	;# 
   122  0097                     	;# 
   123  0098                     	;# 
   124  0099                     	;# 
   125  009A                     	;# 
   126  009B                     	;# 
   127  009B                     	;# 
   128  009C                     	;# 
   129  009D                     	;# 
   130  009E                     	;# 
   131  009F                     	;# 
   132  010C                     	;# 
   133  010E                     	;# 
   134  0111                     	;# 
   135  0112                     	;# 
   136  0113                     	;# 
   137  0114                     	;# 
   138  0115                     	;# 
   139  0116                     	;# 
   140  0117                     	;# 
   141  0118                     	;# 
   142  0119                     	;# 
   143  018C                     	;# 
   144  018E                     	;# 
   145  0191                     	;# 
   146  0191                     	;# 
   147  0192                     	;# 
   148  0193                     	;# 
   149  0193                     	;# 
   150  0194                     	;# 
   151  0195                     	;# 
   152  0196                     	;# 
   153  0197                     	;# 
   154  0199                     	;# 
   155  019A                     	;# 
   156  019B                     	;# 
   157  019B                     	;# 
   158  019C                     	;# 
   159  019D                     	;# 
   160  019E                     	;# 
   161  019F                     	;# 
   162  020C                     	;# 
   163  020E                     	;# 
   164  028C                     	;# 
   165  028E                     	;# 
   166  030C                     	;# 
   167  030E                     	;# 
   168  038C                     	;# 
   169  038E                     	;# 
   170  0391                     	;# 
   171  0392                     	;# 
   172  0393                     	;# 
   173  0397                     	;# 
   174  0398                     	;# 
   175  0399                     	;# 
   176  0691                     	;# 
   177  0692                     	;# 
   178  0693                     	;# 
   179  0694                     	;# 
   180  0695                     	;# 
   181  0D8E                     	;# 
   182  0D8F                     	;# 
   183  0D90                     	;# 
   184  0D91                     	;# 
   185  0D91                     	;# 
   186  0D92                     	;# 
   187  0D93                     	;# 
   188  0D93                     	;# 
   189  0D94                     	;# 
   190  0D95                     	;# 
   191  0D95                     	;# 
   192  0D96                     	;# 
   193  0D97                     	;# 
   194  0D97                     	;# 
   195  0D98                     	;# 
   196  0D99                     	;# 
   197  0D99                     	;# 
   198  0D9A                     	;# 
   199  0D9B                     	;# 
   200  0D9C                     	;# 
   201  0D9C                     	;# 
   202  0D9D                     	;# 
   203  0D9D                     	;# 
   204  0D9E                     	;# 
   205  0D9F                     	;# 
   206  0DA0                     	;# 
   207  0DA1                     	;# 
   208  0DA1                     	;# 
   209  0DA2                     	;# 
   210  0DA3                     	;# 
   211  0DA3                     	;# 
   212  0DA4                     	;# 
   213  0DA5                     	;# 
   214  0DA5                     	;# 
   215  0DA6                     	;# 
   216  0DA7                     	;# 
   217  0DA7                     	;# 
   218  0DA8                     	;# 
   219  0DA9                     	;# 
   220  0DA9                     	;# 
   221  0DAA                     	;# 
   222  0DAB                     	;# 
   223  0DAC                     	;# 
   224  0DAC                     	;# 
   225  0DAD                     	;# 
   226  0DAD                     	;# 
   227  0DAE                     	;# 
   228  0DAF                     	;# 
   229  0DB0                     	;# 
   230  0DB1                     	;# 
   231  0DB1                     	;# 
   232  0DB2                     	;# 
   233  0DB3                     	;# 
   234  0DB3                     	;# 
   235  0DB4                     	;# 
   236  0DB5                     	;# 
   237  0DB5                     	;# 
   238  0DB6                     	;# 
   239  0DB7                     	;# 
   240  0DB7                     	;# 
   241  0DB8                     	;# 
   242  0DB9                     	;# 
   243  0DB9                     	;# 
   244  0DBA                     	;# 
   245  0DBB                     	;# 
   246  0DBC                     	;# 
   247  0DBC                     	;# 
   248  0DBD                     	;# 
   249  0DBD                     	;# 
   250  0DBE                     	;# 
   251  0DBF                     	;# 
   252  0DC0                     	;# 
   253  0DC1                     	;# 
   254  0DC1                     	;# 
   255  0DC2                     	;# 
   256  0DC3                     	;# 
   257  0DC3                     	;# 
   258  0DC4                     	;# 
   259  0DC5                     	;# 
   260  0DC5                     	;# 
   261  0DC6                     	;# 
   262  0DC7                     	;# 
   263  0DC7                     	;# 
   264  0DC8                     	;# 
   265  0DC9                     	;# 
   266  0DC9                     	;# 
   267  0DCA                     	;# 
   268  0DCB                     	;# 
   269  0DCC                     	;# 
   270  0DCC                     	;# 
   271  0DCD                     	;# 
   272  0DCD                     	;# 
   273  0DCE                     	;# 
   274  0DCF                     	;# 
   275  0DD0                     	;# 
   276  0E0F                     	;# 
   277  0E10                     	;# 
   278  0E11                     	;# 
   279  0E12                     	;# 
   280  0E13                     	;# 
   281  0E14                     	;# 
   282  0E15                     	;# 
   283  0E16                     	;# 
   284  0E17                     	;# 
   285  0E90                     	;# 
   286  0E91                     	;# 
   287  0E92                     	;# 
   288  0E94                     	;# 
   289  0E95                     	;# 
   290  0EA0                     	;# 
   291  0EA1                     	;# 
   292  0EA2                     	;# 
   293  0EA3                     	;# 
   294  0EA4                     	;# 
   295  0EA5                     	;# 
   296  0FE4                     	;# 
   297  0FE5                     	;# 
   298  0FE6                     	;# 
   299  0FE7                     	;# 
   300  0FE8                     	;# 
   301  0FE8                     	;# 
   302  0FE9                     	;# 
   303  0FEA                     	;# 
   304  0FEA                     	;# 
   305  0FEB                     	;# 
   306  0FED                     	;# 
   307  0FEE                     	;# 
   308  0FEE                     	;# 
   309  0FEF                     	;# 
   310  0000                     	;# 
   311  0001                     	;# 
   312  0002                     	;# 
   313  0003                     	;# 
   314  0004                     	;# 
   315  0005                     	;# 
   316  0006                     	;# 
   317  0007                     	;# 
   318  0008                     	;# 
   319  0009                     	;# 
   320  000A                     	;# 
   321  000B                     	;# 
   322  000C                     	;# 
   323  000E                     	;# 
   324  0011                     	;# 
   325  0012                     	;# 
   326  0013                     	;# 
   327  0015                     	;# 
   328  0016                     	;# 
   329  0016                     	;# 
   330  0017                     	;# 
   331  0018                     	;# 
   332  0019                     	;# 
   333  001A                     	;# 
   334  001B                     	;# 
   335  001C                     	;# 
   336  008C                     	;# 
   337  008E                     	;# 
   338  0091                     	;# 
   339  0092                     	;# 
   340  0093                     	;# 
   341  0095                     	;# 
   342  0096                     	;# 
   343  0097                     	;# 
   344  0098                     	;# 
   345  0099                     	;# 
   346  009A                     	;# 
   347  009B                     	;# 
   348  009B                     	;# 
   349  009C                     	;# 
   350  009D                     	;# 
   351  009E                     	;# 
   352  009F                     	;# 
   353  010C                     	;# 
   354  010E                     	;# 
   355  0111                     	;# 
   356  0112                     	;# 
   357  0113                     	;# 
   358  0114                     	;# 
   359  0115                     	;# 
   360  0116                     	;# 
   361  0117                     	;# 
   362  0118                     	;# 
   363  0119                     	;# 
   364  018C                     	;# 
   365  018E                     	;# 
   366  0191                     	;# 
   367  0191                     	;# 
   368  0192                     	;# 
   369  0193                     	;# 
   370  0193                     	;# 
   371  0194                     	;# 
   372  0195                     	;# 
   373  0196                     	;# 
   374  0197                     	;# 
   375  0199                     	;# 
   376  019A                     	;# 
   377  019B                     	;# 
   378  019B                     	;# 
   379  019C                     	;# 
   380  019D                     	;# 
   381  019E                     	;# 
   382  019F                     	;# 
   383  020C                     	;# 
   384  020E                     	;# 
   385  028C                     	;# 
   386  028E                     	;# 
   387  030C                     	;# 
   388  030E                     	;# 
   389  038C                     	;# 
   390  038E                     	;# 
   391  0391                     	;# 
   392  0392                     	;# 
   393  0393                     	;# 
   394  0397                     	;# 
   395  0398                     	;# 
   396  0399                     	;# 
   397  0691                     	;# 
   398  0692                     	;# 
   399  0693                     	;# 
   400  0694                     	;# 
   401  0695                     	;# 
   402  0D8E                     	;# 
   403  0D8F                     	;# 
   404  0D90                     	;# 
   405  0D91                     	;# 
   406  0D91                     	;# 
   407  0D92                     	;# 
   408  0D93                     	;# 
   409  0D93                     	;# 
   410  0D94                     	;# 
   411  0D95                     	;# 
   412  0D95                     	;# 
   413  0D96                     	;# 
   414  0D97                     	;# 
   415  0D97                     	;# 
   416  0D98                     	;# 
   417  0D99                     	;# 
   418  0D99                     	;# 
   419  0D9A                     	;# 
   420  0D9B                     	;# 
   421  0D9C                     	;# 
   422  0D9C                     	;# 
   423  0D9D                     	;# 
   424  0D9D                     	;# 
   425  0D9E                     	;# 
   426  0D9F                     	;# 
   427  0DA0                     	;# 
   428  0DA1                     	;# 
   429  0DA1                     	;# 
   430  0DA2                     	;# 
   431  0DA3                     	;# 
   432  0DA3                     	;# 
   433  0DA4                     	;# 
   434  0DA5                     	;# 
   435  0DA5                     	;# 
   436  0DA6                     	;# 
   437  0DA7                     	;# 
   438  0DA7                     	;# 
   439  0DA8                     	;# 
   440  0DA9                     	;# 
   441  0DA9                     	;# 
   442  0DAA                     	;# 
   443  0DAB                     	;# 
   444  0DAC                     	;# 
   445  0DAC                     	;# 
   446  0DAD                     	;# 
   447  0DAD                     	;# 
   448  0DAE                     	;# 
   449  0DAF                     	;# 
   450  0DB0                     	;# 
   451  0DB1                     	;# 
   452  0DB1                     	;# 
   453  0DB2                     	;# 
   454  0DB3                     	;# 
   455  0DB3                     	;# 
   456  0DB4                     	;# 
   457  0DB5                     	;# 
   458  0DB5                     	;# 
   459  0DB6                     	;# 
   460  0DB7                     	;# 
   461  0DB7                     	;# 
   462  0DB8                     	;# 
   463  0DB9                     	;# 
   464  0DB9                     	;# 
   465  0DBA                     	;# 
   466  0DBB                     	;# 
   467  0DBC                     	;# 
   468  0DBC                     	;# 
   469  0DBD                     	;# 
   470  0DBD                     	;# 
   471  0DBE                     	;# 
   472  0DBF                     	;# 
   473  0DC0                     	;# 
   474  0DC1                     	;# 
   475  0DC1                     	;# 
   476  0DC2                     	;# 
   477  0DC3                     	;# 
   478  0DC3                     	;# 
   479  0DC4                     	;# 
   480  0DC5                     	;# 
   481  0DC5                     	;# 
   482  0DC6                     	;# 
   483  0DC7                     	;# 
   484  0DC7                     	;# 
   485  0DC8                     	;# 
   486  0DC9                     	;# 
   487  0DC9                     	;# 
   488  0DCA                     	;# 
   489  0DCB                     	;# 
   490  0DCC                     	;# 
   491  0DCC                     	;# 
   492  0DCD                     	;# 
   493  0DCD                     	;# 
   494  0DCE                     	;# 
   495  0DCF                     	;# 
   496  0DD0                     	;# 
   497  0E0F                     	;# 
   498  0E10                     	;# 
   499  0E11                     	;# 
   500  0E12                     	;# 
   501  0E13                     	;# 
   502  0E14                     	;# 
   503  0E15                     	;# 
   504  0E16                     	;# 
   505  0E17                     	;# 
   506  0E90                     	;# 
   507  0E91                     	;# 
   508  0E92                     	;# 
   509  0E94                     	;# 
   510  0E95                     	;# 
   511  0EA0                     	;# 
   512  0EA1                     	;# 
   513  0EA2                     	;# 
   514  0EA3                     	;# 
   515  0EA4                     	;# 
   516  0EA5                     	;# 
   517  0FE4                     	;# 
   518  0FE5                     	;# 
   519  0FE6                     	;# 
   520  0FE7                     	;# 
   521  0FE8                     	;# 
   522  0FE8                     	;# 
   523  0FE9                     	;# 
   524  0FEA                     	;# 
   525  0FEA                     	;# 
   526  0FEB                     	;# 
   527  0FED                     	;# 
   528  0FEE                     	;# 
   529  0FEE                     	;# 
   530  0FEF                     	;# 
   531  0000                     	;# 
   532  0001                     	;# 
   533  0002                     	;# 
   534  0003                     	;# 
   535  0004                     	;# 
   536  0005                     	;# 
   537  0006                     	;# 
   538  0007                     	;# 
   539  0008                     	;# 
   540  0009                     	;# 
   541  000A                     	;# 
   542  000B                     	;# 
   543  000C                     	;# 
   544  000E                     	;# 
   545  0011                     	;# 
   546  0012                     	;# 
   547  0013                     	;# 
   548  0015                     	;# 
   549  0016                     	;# 
   550  0016                     	;# 
   551  0017                     	;# 
   552  0018                     	;# 
   553  0019                     	;# 
   554  001A                     	;# 
   555  001B                     	;# 
   556  001C                     	;# 
   557  008C                     	;# 
   558  008E                     	;# 
   559  0091                     	;# 
   560  0092                     	;# 
   561  0093                     	;# 
   562  0095                     	;# 
   563  0096                     	;# 
   564  0097                     	;# 
   565  0098                     	;# 
   566  0099                     	;# 
   567  009A                     	;# 
   568  009B                     	;# 
   569  009B                     	;# 
   570  009C                     	;# 
   571  009D                     	;# 
   572  009E                     	;# 
   573  009F                     	;# 
   574  010C                     	;# 
   575  010E                     	;# 
   576  0111                     	;# 
   577  0112                     	;# 
   578  0113                     	;# 
   579  0114                     	;# 
   580  0115                     	;# 
   581  0116                     	;# 
   582  0117                     	;# 
   583  0118                     	;# 
   584  0119                     	;# 
   585  018C                     	;# 
   586  018E                     	;# 
   587  0191                     	;# 
   588  0191                     	;# 
   589  0192                     	;# 
   590  0193                     	;# 
   591  0193                     	;# 
   592  0194                     	;# 
   593  0195                     	;# 
   594  0196                     	;# 
   595  0197                     	;# 
   596  0199                     	;# 
   597  019A                     	;# 
   598  019B                     	;# 
   599  019B                     	;# 
   600  019C                     	;# 
   601  019D                     	;# 
   602  019E                     	;# 
   603  019F                     	;# 
   604  020C                     	;# 
   605  020E                     	;# 
   606  028C                     	;# 
   607  028E                     	;# 
   608  030C                     	;# 
   609  030E                     	;# 
   610  038C                     	;# 
   611  038E                     	;# 
   612  0391                     	;# 
   613  0392                     	;# 
   614  0393                     	;# 
   615  0397                     	;# 
   616  0398                     	;# 
   617  0399                     	;# 
   618  0691                     	;# 
   619  0692                     	;# 
   620  0693                     	;# 
   621  0694                     	;# 
   622  0695                     	;# 
   623  0D8E                     	;# 
   624  0D8F                     	;# 
   625  0D90                     	;# 
   626  0D91                     	;# 
   627  0D91                     	;# 
   628  0D92                     	;# 
   629  0D93                     	;# 
   630  0D93                     	;# 
   631  0D94                     	;# 
   632  0D95                     	;# 
   633  0D95                     	;# 
   634  0D96                     	;# 
   635  0D97                     	;# 
   636  0D97                     	;# 
   637  0D98                     	;# 
   638  0D99                     	;# 
   639  0D99                     	;# 
   640  0D9A                     	;# 
   641  0D9B                     	;# 
   642  0D9C                     	;# 
   643  0D9C                     	;# 
   644  0D9D                     	;# 
   645  0D9D                     	;# 
   646  0D9E                     	;# 
   647  0D9F                     	;# 
   648  0DA0                     	;# 
   649  0DA1                     	;# 
   650  0DA1                     	;# 
   651  0DA2                     	;# 
   652  0DA3                     	;# 
   653  0DA3                     	;# 
   654  0DA4                     	;# 
   655  0DA5                     	;# 
   656  0DA5                     	;# 
   657  0DA6                     	;# 
   658  0DA7                     	;# 
   659  0DA7                     	;# 
   660  0DA8                     	;# 
   661  0DA9                     	;# 
   662  0DA9                     	;# 
   663  0DAA                     	;# 
   664  0DAB                     	;# 
   665  0DAC                     	;# 
   666  0DAC                     	;# 
   667  0DAD                     	;# 
   668  0DAD                     	;# 
   669  0DAE                     	;# 
   670  0DAF                     	;# 
   671  0DB0                     	;# 
   672  0DB1                     	;# 
   673  0DB1                     	;# 
   674  0DB2                     	;# 
   675  0DB3                     	;# 
   676  0DB3                     	;# 
   677  0DB4                     	;# 
   678  0DB5                     	;# 
   679  0DB5                     	;# 
   680  0DB6                     	;# 
   681  0DB7                     	;# 
   682  0DB7                     	;# 
   683  0DB8                     	;# 
   684  0DB9                     	;# 
   685  0DB9                     	;# 
   686  0DBA                     	;# 
   687  0DBB                     	;# 
   688  0DBC                     	;# 
   689  0DBC                     	;# 
   690  0DBD                     	;# 
   691  0DBD                     	;# 
   692  0DBE                     	;# 
   693  0DBF                     	;# 
   694  0DC0                     	;# 
   695  0DC1                     	;# 
   696  0DC1                     	;# 
   697  0DC2                     	;# 
   698  0DC3                     	;# 
   699  0DC3                     	;# 
   700  0DC4                     	;# 
   701  0DC5                     	;# 
   702  0DC5                     	;# 
   703  0DC6                     	;# 
   704  0DC7                     	;# 
   705  0DC7                     	;# 
   706  0DC8                     	;# 
   707  0DC9                     	;# 
   708  0DC9                     	;# 
   709  0DCA                     	;# 
   710  0DCB                     	;# 
   711  0DCC                     	;# 
   712  0DCC                     	;# 
   713  0DCD                     	;# 
   714  0DCD                     	;# 
   715  0DCE                     	;# 
   716  0DCF                     	;# 
   717  0DD0                     	;# 
   718  0E0F                     	;# 
   719  0E10                     	;# 
   720  0E11                     	;# 
   721  0E12                     	;# 
   722  0E13                     	;# 
   723  0E14                     	;# 
   724  0E15                     	;# 
   725  0E16                     	;# 
   726  0E17                     	;# 
   727  0E90                     	;# 
   728  0E91                     	;# 
   729  0E92                     	;# 
   730  0E94                     	;# 
   731  0E95                     	;# 
   732  0EA0                     	;# 
   733  0EA1                     	;# 
   734  0EA2                     	;# 
   735  0EA3                     	;# 
   736  0EA4                     	;# 
   737  0EA5                     	;# 
   738  0FE4                     	;# 
   739  0FE5                     	;# 
   740  0FE6                     	;# 
   741  0FE7                     	;# 
   742  0FE8                     	;# 
   743  0FE8                     	;# 
   744  0FE9                     	;# 
   745  0FEA                     	;# 
   746  0FEA                     	;# 
   747  0FEB                     	;# 
   748  0FED                     	;# 
   749  0FEE                     	;# 
   750  0FEE                     	;# 
   751  0FEF                     	;# 
   752  0000                     	;# 
   753  0001                     	;# 
   754  0002                     	;# 
   755  0003                     	;# 
   756  0004                     	;# 
   757  0005                     	;# 
   758  0006                     	;# 
   759  0007                     	;# 
   760  0008                     	;# 
   761  0009                     	;# 
   762  000A                     	;# 
   763  000B                     	;# 
   764  000C                     	;# 
   765  000E                     	;# 
   766  0011                     	;# 
   767  0012                     	;# 
   768  0013                     	;# 
   769  0015                     	;# 
   770  0016                     	;# 
   771  0016                     	;# 
   772  0017                     	;# 
   773  0018                     	;# 
   774  0019                     	;# 
   775  001A                     	;# 
   776  001B                     	;# 
   777  001C                     	;# 
   778  008C                     	;# 
   779  008E                     	;# 
   780  0091                     	;# 
   781  0092                     	;# 
   782  0093                     	;# 
   783  0095                     	;# 
   784  0096                     	;# 
   785  0097                     	;# 
   786  0098                     	;# 
   787  0099                     	;# 
   788  009A                     	;# 
   789  009B                     	;# 
   790  009B                     	;# 
   791  009C                     	;# 
   792  009D                     	;# 
   793  009E                     	;# 
   794  009F                     	;# 
   795  010C                     	;# 
   796  010E                     	;# 
   797  0111                     	;# 
   798  0112                     	;# 
   799  0113                     	;# 
   800  0114                     	;# 
   801  0115                     	;# 
   802  0116                     	;# 
   803  0117                     	;# 
   804  0118                     	;# 
   805  0119                     	;# 
   806  018C                     	;# 
   807  018E                     	;# 
   808  0191                     	;# 
   809  0191                     	;# 
   810  0192                     	;# 
   811  0193                     	;# 
   812  0193                     	;# 
   813  0194                     	;# 
   814  0195                     	;# 
   815  0196                     	;# 
   816  0197                     	;# 
   817  0199                     	;# 
   818  019A                     	;# 
   819  019B                     	;# 
   820  019B                     	;# 
   821  019C                     	;# 
   822  019D                     	;# 
   823  019E                     	;# 
   824  019F                     	;# 
   825  020C                     	;# 
   826  020E                     	;# 
   827  028C                     	;# 
   828  028E                     	;# 
   829  030C                     	;# 
   830  030E                     	;# 
   831  038C                     	;# 
   832  038E                     	;# 
   833  0391                     	;# 
   834  0392                     	;# 
   835  0393                     	;# 
   836  0397                     	;# 
   837  0398                     	;# 
   838  0399                     	;# 
   839  0691                     	;# 
   840  0692                     	;# 
   841  0693                     	;# 
   842  0694                     	;# 
   843  0695                     	;# 
   844  0D8E                     	;# 
   845  0D8F                     	;# 
   846  0D90                     	;# 
   847  0D91                     	;# 
   848  0D91                     	;# 
   849  0D92                     	;# 
   850  0D93                     	;# 
   851  0D93                     	;# 
   852  0D94                     	;# 
   853  0D95                     	;# 
   854  0D95                     	;# 
   855  0D96                     	;# 
   856  0D97                     	;# 
   857  0D97                     	;# 
   858  0D98                     	;# 
   859  0D99                     	;# 
   860  0D99                     	;# 
   861  0D9A                     	;# 
   862  0D9B                     	;# 
   863  0D9C                     	;# 
   864  0D9C                     	;# 
   865  0D9D                     	;# 
   866  0D9D                     	;# 
   867  0D9E                     	;# 
   868  0D9F                     	;# 
   869  0DA0                     	;# 
   870  0DA1                     	;# 
   871  0DA1                     	;# 
   872  0DA2                     	;# 
   873  0DA3                     	;# 
   874  0DA3                     	;# 
   875  0DA4                     	;# 
   876  0DA5                     	;# 
   877  0DA5                     	;# 
   878  0DA6                     	;# 
   879  0DA7                     	;# 
   880  0DA7                     	;# 
   881  0DA8                     	;# 
   882  0DA9                     	;# 
   883  0DA9                     	;# 
   884  0DAA                     	;# 
   885  0DAB                     	;# 
   886  0DAC                     	;# 
   887  0DAC                     	;# 
   888  0DAD                     	;# 
   889  0DAD                     	;# 
   890  0DAE                     	;# 
   891  0DAF                     	;# 
   892  0DB0                     	;# 
   893  0DB1                     	;# 
   894  0DB1                     	;# 
   895  0DB2                     	;# 
   896  0DB3                     	;# 
   897  0DB3                     	;# 
   898  0DB4                     	;# 
   899  0DB5                     	;# 
   900  0DB5                     	;# 
   901  0DB6                     	;# 
   902  0DB7                     	;# 
   903  0DB7                     	;# 
   904  0DB8                     	;# 
   905  0DB9                     	;# 
   906  0DB9                     	;# 
   907  0DBA                     	;# 
   908  0DBB                     	;# 
   909  0DBC                     	;# 
   910  0DBC                     	;# 
   911  0DBD                     	;# 
   912  0DBD                     	;# 
   913  0DBE                     	;# 
   914  0DBF                     	;# 
   915  0DC0                     	;# 
   916  0DC1                     	;# 
   917  0DC1                     	;# 
   918  0DC2                     	;# 
   919  0DC3                     	;# 
   920  0DC3                     	;# 
   921  0DC4                     	;# 
   922  0DC5                     	;# 
   923  0DC5                     	;# 
   924  0DC6                     	;# 
   925  0DC7                     	;# 
   926  0DC7                     	;# 
   927  0DC8                     	;# 
   928  0DC9                     	;# 
   929  0DC9                     	;# 
   930  0DCA                     	;# 
   931  0DCB                     	;# 
   932  0DCC                     	;# 
   933  0DCC                     	;# 
   934  0DCD                     	;# 
   935  0DCD                     	;# 
   936  0DCE                     	;# 
   937  0DCF                     	;# 
   938  0DD0                     	;# 
   939  0E0F                     	;# 
   940  0E10                     	;# 
   941  0E11                     	;# 
   942  0E12                     	;# 
   943  0E13                     	;# 
   944  0E14                     	;# 
   945  0E15                     	;# 
   946  0E16                     	;# 
   947  0E17                     	;# 
   948  0E90                     	;# 
   949  0E91                     	;# 
   950  0E92                     	;# 
   951  0E94                     	;# 
   952  0E95                     	;# 
   953  0EA0                     	;# 
   954  0EA1                     	;# 
   955  0EA2                     	;# 
   956  0EA3                     	;# 
   957  0EA4                     	;# 
   958  0EA5                     	;# 
   959  0FE4                     	;# 
   960  0FE5                     	;# 
   961  0FE6                     	;# 
   962  0FE7                     	;# 
   963  0FE8                     	;# 
   964  0FE8                     	;# 
   965  0FE9                     	;# 
   966  0FEA                     	;# 
   967  0FEA                     	;# 
   968  0FEB                     	;# 
   969  0FED                     	;# 
   970  0FEE                     	;# 
   971  0FEE                     	;# 
   972  0FEF                     	;# 
   973  0000                     	;# 
   974  0001                     	;# 
   975  0002                     	;# 
   976  0003                     	;# 
   977  0004                     	;# 
   978  0005                     	;# 
   979  0006                     	;# 
   980  0007                     	;# 
   981  0008                     	;# 
   982  0009                     	;# 
   983  000A                     	;# 
   984  000B                     	;# 
   985  000C                     	;# 
   986  000E                     	;# 
   987  0011                     	;# 
   988  0012                     	;# 
   989  0013                     	;# 
   990  0015                     	;# 
   991  0016                     	;# 
   992  0016                     	;# 
   993  0017                     	;# 
   994  0018                     	;# 
   995  0019                     	;# 
   996  001A                     	;# 
   997  001B                     	;# 
   998  001C                     	;# 
   999  008C                     	;# 
  1000  008E                     	;# 
  1001  0091                     	;# 
  1002  0092                     	;# 
  1003  0093                     	;# 
  1004  0095                     	;# 
  1005  0096                     	;# 
  1006  0097                     	;# 
  1007  0098                     	;# 
  1008  0099                     	;# 
  1009  009A                     	;# 
  1010  009B                     	;# 
  1011  009B                     	;# 
  1012  009C                     	;# 
  1013  009D                     	;# 
  1014  009E                     	;# 
  1015  009F                     	;# 
  1016  010C                     	;# 
  1017  010E                     	;# 
  1018  0111                     	;# 
  1019  0112                     	;# 
  1020  0113                     	;# 
  1021  0114                     	;# 
  1022  0115                     	;# 
  1023  0116                     	;# 
  1024  0117                     	;# 
  1025  0118                     	;# 
  1026  0119                     	;# 
  1027  018C                     	;# 
  1028  018E                     	;# 
  1029  0191                     	;# 
  1030  0191                     	;# 
  1031  0192                     	;# 
  1032  0193                     	;# 
  1033  0193                     	;# 
  1034  0194                     	;# 
  1035  0195                     	;# 
  1036  0196                     	;# 
  1037  0197                     	;# 
  1038  0199                     	;# 
  1039  019A                     	;# 
  1040  019B                     	;# 
  1041  019B                     	;# 
  1042  019C                     	;# 
  1043  019D                     	;# 
  1044  019E                     	;# 
  1045  019F                     	;# 
  1046  020C                     	;# 
  1047  020E                     	;# 
  1048  028C                     	;# 
  1049  028E                     	;# 
  1050  030C                     	;# 
  1051  030E                     	;# 
  1052  038C                     	;# 
  1053  038E                     	;# 
  1054  0391                     	;# 
  1055  0392                     	;# 
  1056  0393                     	;# 
  1057  0397                     	;# 
  1058  0398                     	;# 
  1059  0399                     	;# 
  1060  0691                     	;# 
  1061  0692                     	;# 
  1062  0693                     	;# 
  1063  0694                     	;# 
  1064  0695                     	;# 
  1065  0D8E                     	;# 
  1066  0D8F                     	;# 
  1067  0D90                     	;# 
  1068  0D91                     	;# 
  1069  0D91                     	;# 
  1070  0D92                     	;# 
  1071  0D93                     	;# 
  1072  0D93                     	;# 
  1073  0D94                     	;# 
  1074  0D95                     	;# 
  1075  0D95                     	;# 
  1076  0D96                     	;# 
  1077  0D97                     	;# 
  1078  0D97                     	;# 
  1079  0D98                     	;# 
  1080  0D99                     	;# 
  1081  0D99                     	;# 
  1082  0D9A                     	;# 
  1083  0D9B                     	;# 
  1084  0D9C                     	;# 
  1085  0D9C                     	;# 
  1086  0D9D                     	;# 
  1087  0D9D                     	;# 
  1088  0D9E                     	;# 
  1089  0D9F                     	;# 
  1090  0DA0                     	;# 
  1091  0DA1                     	;# 
  1092  0DA1                     	;# 
  1093  0DA2                     	;# 
  1094  0DA3                     	;# 
  1095  0DA3                     	;# 
  1096  0DA4                     	;# 
  1097  0DA5                     	;# 
  1098  0DA5                     	;# 
  1099  0DA6                     	;# 
  1100  0DA7                     	;# 
  1101  0DA7                     	;# 
  1102  0DA8                     	;# 
  1103  0DA9                     	;# 
  1104  0DA9                     	;# 
  1105  0DAA                     	;# 
  1106  0DAB                     	;# 
  1107  0DAC                     	;# 
  1108  0DAC                     	;# 
  1109  0DAD                     	;# 
  1110  0DAD                     	;# 
  1111  0DAE                     	;# 
  1112  0DAF                     	;# 
  1113  0DB0                     	;# 
  1114  0DB1                     	;# 
  1115  0DB1                     	;# 
  1116  0DB2                     	;# 
  1117  0DB3                     	;# 
  1118  0DB3                     	;# 
  1119  0DB4                     	;# 
  1120  0DB5                     	;# 
  1121  0DB5                     	;# 
  1122  0DB6                     	;# 
  1123  0DB7                     	;# 
  1124  0DB7                     	;# 
  1125  0DB8                     	;# 
  1126  0DB9                     	;# 
  1127  0DB9                     	;# 
  1128  0DBA                     	;# 
  1129  0DBB                     	;# 
  1130  0DBC                     	;# 
  1131  0DBC                     	;# 
  1132  0DBD                     	;# 
  1133  0DBD                     	;# 
  1134  0DBE                     	;# 
  1135  0DBF                     	;# 
  1136  0DC0                     	;# 
  1137  0DC1                     	;# 
  1138  0DC1                     	;# 
  1139  0DC2                     	;# 
  1140  0DC3                     	;# 
  1141  0DC3                     	;# 
  1142  0DC4                     	;# 
  1143  0DC5                     	;# 
  1144  0DC5                     	;# 
  1145  0DC6                     	;# 
  1146  0DC7                     	;# 
  1147  0DC7                     	;# 
  1148  0DC8                     	;# 
  1149  0DC9                     	;# 
  1150  0DC9                     	;# 
  1151  0DCA                     	;# 
  1152  0DCB                     	;# 
  1153  0DCC                     	;# 
  1154  0DCC                     	;# 
  1155  0DCD                     	;# 
  1156  0DCD                     	;# 
  1157  0DCE                     	;# 
  1158  0DCF                     	;# 
  1159  0DD0                     	;# 
  1160  0E0F                     	;# 
  1161  0E10                     	;# 
  1162  0E11                     	;# 
  1163  0E12                     	;# 
  1164  0E13                     	;# 
  1165  0E14                     	;# 
  1166  0E15                     	;# 
  1167  0E16                     	;# 
  1168  0E17                     	;# 
  1169  0E90                     	;# 
  1170  0E91                     	;# 
  1171  0E92                     	;# 
  1172  0E94                     	;# 
  1173  0E95                     	;# 
  1174  0EA0                     	;# 
  1175  0EA1                     	;# 
  1176  0EA2                     	;# 
  1177  0EA3                     	;# 
  1178  0EA4                     	;# 
  1179  0EA5                     	;# 
  1180  0FE4                     	;# 
  1181  0FE5                     	;# 
  1182  0FE6                     	;# 
  1183  0FE7                     	;# 
  1184  0FE8                     	;# 
  1185  0FE8                     	;# 
  1186  0FE9                     	;# 
  1187  0FEA                     	;# 
  1188  0FEA                     	;# 
  1189  0FEB                     	;# 
  1190  0FED                     	;# 
  1191  0FEE                     	;# 
  1192  0FEE                     	;# 
  1193  0FEF                     	;# 
  1194  0000                     	;# 
  1195  0001                     	;# 
  1196  0002                     	;# 
  1197  0003                     	;# 
  1198  0004                     	;# 
  1199  0005                     	;# 
  1200  0006                     	;# 
  1201  0007                     	;# 
  1202  0008                     	;# 
  1203  0009                     	;# 
  1204  000A                     	;# 
  1205  000B                     	;# 
  1206  000C                     	;# 
  1207  000E                     	;# 
  1208  0011                     	;# 
  1209  0012                     	;# 
  1210  0013                     	;# 
  1211  0015                     	;# 
  1212  0016                     	;# 
  1213  0016                     	;# 
  1214  0017                     	;# 
  1215  0018                     	;# 
  1216  0019                     	;# 
  1217  001A                     	;# 
  1218  001B                     	;# 
  1219  001C                     	;# 
  1220  008C                     	;# 
  1221  008E                     	;# 
  1222  0091                     	;# 
  1223  0092                     	;# 
  1224  0093                     	;# 
  1225  0095                     	;# 
  1226  0096                     	;# 
  1227  0097                     	;# 
  1228  0098                     	;# 
  1229  0099                     	;# 
  1230  009A                     	;# 
  1231  009B                     	;# 
  1232  009B                     	;# 
  1233  009C                     	;# 
  1234  009D                     	;# 
  1235  009E                     	;# 
  1236  009F                     	;# 
  1237  010C                     	;# 
  1238  010E                     	;# 
  1239  0111                     	;# 
  1240  0112                     	;# 
  1241  0113                     	;# 
  1242  0114                     	;# 
  1243  0115                     	;# 
  1244  0116                     	;# 
  1245  0117                     	;# 
  1246  0118                     	;# 
  1247  0119                     	;# 
  1248  018C                     	;# 
  1249  018E                     	;# 
  1250  0191                     	;# 
  1251  0191                     	;# 
  1252  0192                     	;# 
  1253  0193                     	;# 
  1254  0193                     	;# 
  1255  0194                     	;# 
  1256  0195                     	;# 
  1257  0196                     	;# 
  1258  0197                     	;# 
  1259  0199                     	;# 
  1260  019A                     	;# 
  1261  019B                     	;# 
  1262  019B                     	;# 
  1263  019C                     	;# 
  1264  019D                     	;# 
  1265  019E                     	;# 
  1266  019F                     	;# 
  1267  020C                     	;# 
  1268  020E                     	;# 
  1269  028C                     	;# 
  1270  028E                     	;# 
  1271  030C                     	;# 
  1272  030E                     	;# 
  1273  038C                     	;# 
  1274  038E                     	;# 
  1275  0391                     	;# 
  1276  0392                     	;# 
  1277  0393                     	;# 
  1278  0397                     	;# 
  1279  0398                     	;# 
  1280  0399                     	;# 
  1281  0691                     	;# 
  1282  0692                     	;# 
  1283  0693                     	;# 
  1284  0694                     	;# 
  1285  0695                     	;# 
  1286  0D8E                     	;# 
  1287  0D8F                     	;# 
  1288  0D90                     	;# 
  1289  0D91                     	;# 
  1290  0D91                     	;# 
  1291  0D92                     	;# 
  1292  0D93                     	;# 
  1293  0D93                     	;# 
  1294  0D94                     	;# 
  1295  0D95                     	;# 
  1296  0D95                     	;# 
  1297  0D96                     	;# 
  1298  0D97                     	;# 
  1299  0D97                     	;# 
  1300  0D98                     	;# 
  1301  0D99                     	;# 
  1302  0D99                     	;# 
  1303  0D9A                     	;# 
  1304  0D9B                     	;# 
  1305  0D9C                     	;# 
  1306  0D9C                     	;# 
  1307  0D9D                     	;# 
  1308  0D9D                     	;# 
  1309  0D9E                     	;# 
  1310  0D9F                     	;# 
  1311  0DA0                     	;# 
  1312  0DA1                     	;# 
  1313  0DA1                     	;# 
  1314  0DA2                     	;# 
  1315  0DA3                     	;# 
  1316  0DA3                     	;# 
  1317  0DA4                     	;# 
  1318  0DA5                     	;# 
  1319  0DA5                     	;# 
  1320  0DA6                     	;# 
  1321  0DA7                     	;# 
  1322  0DA7                     	;# 
  1323  0DA8                     	;# 
  1324  0DA9                     	;# 
  1325  0DA9                     	;# 
  1326  0DAA                     	;# 
  1327  0DAB                     	;# 
  1328  0DAC                     	;# 
  1329  0DAC                     	;# 
  1330  0DAD                     	;# 
  1331  0DAD                     	;# 
  1332  0DAE                     	;# 
  1333  0DAF                     	;# 
  1334  0DB0                     	;# 
  1335  0DB1                     	;# 
  1336  0DB1                     	;# 
  1337  0DB2                     	;# 
  1338  0DB3                     	;# 
  1339  0DB3                     	;# 
  1340  0DB4                     	;# 
  1341  0DB5                     	;# 
  1342  0DB5                     	;# 
  1343  0DB6                     	;# 
  1344  0DB7                     	;# 
  1345  0DB7                     	;# 
  1346  0DB8                     	;# 
  1347  0DB9                     	;# 
  1348  0DB9                     	;# 
  1349  0DBA                     	;# 
  1350  0DBB                     	;# 
  1351  0DBC                     	;# 
  1352  0DBC                     	;# 
  1353  0DBD                     	;# 
  1354  0DBD                     	;# 
  1355  0DBE                     	;# 
  1356  0DBF                     	;# 
  1357  0DC0                     	;# 
  1358  0DC1                     	;# 
  1359  0DC1                     	;# 
  1360  0DC2                     	;# 
  1361  0DC3                     	;# 
  1362  0DC3                     	;# 
  1363  0DC4                     	;# 
  1364  0DC5                     	;# 
  1365  0DC5                     	;# 
  1366  0DC6                     	;# 
  1367  0DC7                     	;# 
  1368  0DC7                     	;# 
  1369  0DC8                     	;# 
  1370  0DC9                     	;# 
  1371  0DC9                     	;# 
  1372  0DCA                     	;# 
  1373  0DCB                     	;# 
  1374  0DCC                     	;# 
  1375  0DCC                     	;# 
  1376  0DCD                     	;# 
  1377  0DCD                     	;# 
  1378  0DCE                     	;# 
  1379  0DCF                     	;# 
  1380  0DD0                     	;# 
  1381  0E0F                     	;# 
  1382  0E10                     	;# 
  1383  0E11                     	;# 
  1384  0E12                     	;# 
  1385  0E13                     	;# 
  1386  0E14                     	;# 
  1387  0E15                     	;# 
  1388  0E16                     	;# 
  1389  0E17                     	;# 
  1390  0E90                     	;# 
  1391  0E91                     	;# 
  1392  0E92                     	;# 
  1393  0E94                     	;# 
  1394  0E95                     	;# 
  1395  0EA0                     	;# 
  1396  0EA1                     	;# 
  1397  0EA2                     	;# 
  1398  0EA3                     	;# 
  1399  0EA4                     	;# 
  1400  0EA5                     	;# 
  1401  0FE4                     	;# 
  1402  0FE5                     	;# 
  1403  0FE6                     	;# 
  1404  0FE7                     	;# 
  1405  0FE8                     	;# 
  1406  0FE8                     	;# 
  1407  0FE9                     	;# 
  1408  0FEA                     	;# 
  1409  0FEA                     	;# 
  1410  0FEB                     	;# 
  1411  0FED                     	;# 
  1412  0FEE                     	;# 
  1413  0FEE                     	;# 
  1414  0FEF                     	;# 
  1415  0000                     	;# 
  1416  0001                     	;# 
  1417  0002                     	;# 
  1418  0003                     	;# 
  1419  0004                     	;# 
  1420  0005                     	;# 
  1421  0006                     	;# 
  1422  0007                     	;# 
  1423  0008                     	;# 
  1424  0009                     	;# 
  1425  000A                     	;# 
  1426  000B                     	;# 
  1427  000C                     	;# 
  1428  000E                     	;# 
  1429  0011                     	;# 
  1430  0012                     	;# 
  1431  0013                     	;# 
  1432  0015                     	;# 
  1433  0016                     	;# 
  1434  0016                     	;# 
  1435  0017                     	;# 
  1436  0018                     	;# 
  1437  0019                     	;# 
  1438  001A                     	;# 
  1439  001B                     	;# 
  1440  001C                     	;# 
  1441  008C                     	;# 
  1442  008E                     	;# 
  1443  0091                     	;# 
  1444  0092                     	;# 
  1445  0093                     	;# 
  1446  0095                     	;# 
  1447  0096                     	;# 
  1448  0097                     	;# 
  1449  0098                     	;# 
  1450  0099                     	;# 
  1451  009A                     	;# 
  1452  009B                     	;# 
  1453  009B                     	;# 
  1454  009C                     	;# 
  1455  009D                     	;# 
  1456  009E                     	;# 
  1457  009F                     	;# 
  1458  010C                     	;# 
  1459  010E                     	;# 
  1460  0111                     	;# 
  1461  0112                     	;# 
  1462  0113                     	;# 
  1463  0114                     	;# 
  1464  0115                     	;# 
  1465  0116                     	;# 
  1466  0117                     	;# 
  1467  0118                     	;# 
  1468  0119                     	;# 
  1469  018C                     	;# 
  1470  018E                     	;# 
  1471  0191                     	;# 
  1472  0191                     	;# 
  1473  0192                     	;# 
  1474  0193                     	;# 
  1475  0193                     	;# 
  1476  0194                     	;# 
  1477  0195                     	;# 
  1478  0196                     	;# 
  1479  0197                     	;# 
  1480  0199                     	;# 
  1481  019A                     	;# 
  1482  019B                     	;# 
  1483  019B                     	;# 
  1484  019C                     	;# 
  1485  019D                     	;# 
  1486  019E                     	;# 
  1487  019F                     	;# 
  1488  020C                     	;# 
  1489  020E                     	;# 
  1490  028C                     	;# 
  1491  028E                     	;# 
  1492  030C                     	;# 
  1493  030E                     	;# 
  1494  038C                     	;# 
  1495  038E                     	;# 
  1496  0391                     	;# 
  1497  0392                     	;# 
  1498  0393                     	;# 
  1499  0397                     	;# 
  1500  0398                     	;# 
  1501  0399                     	;# 
  1502  0691                     	;# 
  1503  0692                     	;# 
  1504  0693                     	;# 
  1505  0694                     	;# 
  1506  0695                     	;# 
  1507  0D8E                     	;# 
  1508  0D8F                     	;# 
  1509  0D90                     	;# 
  1510  0D91                     	;# 
  1511  0D91                     	;# 
  1512  0D92                     	;# 
  1513  0D93                     	;# 
  1514  0D93                     	;# 
  1515  0D94                     	;# 
  1516  0D95                     	;# 
  1517  0D95                     	;# 
  1518  0D96                     	;# 
  1519  0D97                     	;# 
  1520  0D97                     	;# 
  1521  0D98                     	;# 
  1522  0D99                     	;# 
  1523  0D99                     	;# 
  1524  0D9A                     	;# 
  1525  0D9B                     	;# 
  1526  0D9C                     	;# 
  1527  0D9C                     	;# 
  1528  0D9D                     	;# 
  1529  0D9D                     	;# 
  1530  0D9E                     	;# 
  1531  0D9F                     	;# 
  1532  0DA0                     	;# 
  1533  0DA1                     	;# 
  1534  0DA1                     	;# 
  1535  0DA2                     	;# 
  1536  0DA3                     	;# 
  1537  0DA3                     	;# 
  1538  0DA4                     	;# 
  1539  0DA5                     	;# 
  1540  0DA5                     	;# 
  1541  0DA6                     	;# 
  1542  0DA7                     	;# 
  1543  0DA7                     	;# 
  1544  0DA8                     	;# 
  1545  0DA9                     	;# 
  1546  0DA9                     	;# 
  1547  0DAA                     	;# 
  1548  0DAB                     	;# 
  1549  0DAC                     	;# 
  1550  0DAC                     	;# 
  1551  0DAD                     	;# 
  1552  0DAD                     	;# 
  1553  0DAE                     	;# 
  1554  0DAF                     	;# 
  1555  0DB0                     	;# 
  1556  0DB1                     	;# 
  1557  0DB1                     	;# 
  1558  0DB2                     	;# 
  1559  0DB3                     	;# 
  1560  0DB3                     	;# 
  1561  0DB4                     	;# 
  1562  0DB5                     	;# 
  1563  0DB5                     	;# 
  1564  0DB6                     	;# 
  1565  0DB7                     	;# 
  1566  0DB7                     	;# 
  1567  0DB8                     	;# 
  1568  0DB9                     	;# 
  1569  0DB9                     	;# 
  1570  0DBA                     	;# 
  1571  0DBB                     	;# 
  1572  0DBC                     	;# 
  1573  0DBC                     	;# 
  1574  0DBD                     	;# 
  1575  0DBD                     	;# 
  1576  0DBE                     	;# 
  1577  0DBF                     	;# 
  1578  0DC0                     	;# 
  1579  0DC1                     	;# 
  1580  0DC1                     	;# 
  1581  0DC2                     	;# 
  1582  0DC3                     	;# 
  1583  0DC3                     	;# 
  1584  0DC4                     	;# 
  1585  0DC5                     	;# 
  1586  0DC5                     	;# 
  1587  0DC6                     	;# 
  1588  0DC7                     	;# 
  1589  0DC7                     	;# 
  1590  0DC8                     	;# 
  1591  0DC9                     	;# 
  1592  0DC9                     	;# 
  1593  0DCA                     	;# 
  1594  0DCB                     	;# 
  1595  0DCC                     	;# 
  1596  0DCC                     	;# 
  1597  0DCD                     	;# 
  1598  0DCD                     	;# 
  1599  0DCE                     	;# 
  1600  0DCF                     	;# 
  1601  0DD0                     	;# 
  1602  0E0F                     	;# 
  1603  0E10                     	;# 
  1604  0E11                     	;# 
  1605  0E12                     	;# 
  1606  0E13                     	;# 
  1607  0E14                     	;# 
  1608  0E15                     	;# 
  1609  0E16                     	;# 
  1610  0E17                     	;# 
  1611  0E90                     	;# 
  1612  0E91                     	;# 
  1613  0E92                     	;# 
  1614  0E94                     	;# 
  1615  0E95                     	;# 
  1616  0EA0                     	;# 
  1617  0EA1                     	;# 
  1618  0EA2                     	;# 
  1619  0EA3                     	;# 
  1620  0EA4                     	;# 
  1621  0EA5                     	;# 
  1622  0FE4                     	;# 
  1623  0FE5                     	;# 
  1624  0FE6                     	;# 
  1625  0FE7                     	;# 
  1626  0FE8                     	;# 
  1627  0FE8                     	;# 
  1628  0FE9                     	;# 
  1629  0FEA                     	;# 
  1630  0FEA                     	;# 
  1631  0FEB                     	;# 
  1632  0FED                     	;# 
  1633  0FEE                     	;# 
  1634  0FEE                     	;# 
  1635  0FEF                     	;# 
  1636  0000                     	;# 
  1637  0001                     	;# 
  1638  0002                     	;# 
  1639  0003                     	;# 
  1640  0004                     	;# 
  1641  0005                     	;# 
  1642  0006                     	;# 
  1643  0007                     	;# 
  1644  0008                     	;# 
  1645  0009                     	;# 
  1646  000A                     	;# 
  1647  000B                     	;# 
  1648  000C                     	;# 
  1649  000E                     	;# 
  1650  0011                     	;# 
  1651  0012                     	;# 
  1652  0013                     	;# 
  1653  0015                     	;# 
  1654  0016                     	;# 
  1655  0016                     	;# 
  1656  0017                     	;# 
  1657  0018                     	;# 
  1658  0019                     	;# 
  1659  001A                     	;# 
  1660  001B                     	;# 
  1661  001C                     	;# 
  1662  008C                     	;# 
  1663  008E                     	;# 
  1664  0091                     	;# 
  1665  0092                     	;# 
  1666  0093                     	;# 
  1667  0095                     	;# 
  1668  0096                     	;# 
  1669  0097                     	;# 
  1670  0098                     	;# 
  1671  0099                     	;# 
  1672  009A                     	;# 
  1673  009B                     	;# 
  1674  009B                     	;# 
  1675  009C                     	;# 
  1676  009D                     	;# 
  1677  009E                     	;# 
  1678  009F                     	;# 
  1679  010C                     	;# 
  1680  010E                     	;# 
  1681  0111                     	;# 
  1682  0112                     	;# 
  1683  0113                     	;# 
  1684  0114                     	;# 
  1685  0115                     	;# 
  1686  0116                     	;# 
  1687  0117                     	;# 
  1688  0118                     	;# 
  1689  0119                     	;# 
  1690  018C                     	;# 
  1691  018E                     	;# 
  1692  0191                     	;# 
  1693  0191                     	;# 
  1694  0192                     	;# 
  1695  0193                     	;# 
  1696  0193                     	;# 
  1697  0194                     	;# 
  1698  0195                     	;# 
  1699  0196                     	;# 
  1700  0197                     	;# 
  1701  0199                     	;# 
  1702  019A                     	;# 
  1703  019B                     	;# 
  1704  019B                     	;# 
  1705  019C                     	;# 
  1706  019D                     	;# 
  1707  019E                     	;# 
  1708  019F                     	;# 
  1709  020C                     	;# 
  1710  020E                     	;# 
  1711  028C                     	;# 
  1712  028E                     	;# 
  1713  030C                     	;# 
  1714  030E                     	;# 
  1715  038C                     	;# 
  1716  038E                     	;# 
  1717  0391                     	;# 
  1718  0392                     	;# 
  1719  0393                     	;# 
  1720  0397                     	;# 
  1721  0398                     	;# 
  1722  0399                     	;# 
  1723  0691                     	;# 
  1724  0692                     	;# 
  1725  0693                     	;# 
  1726  0694                     	;# 
  1727  0695                     	;# 
  1728  0D8E                     	;# 
  1729  0D8F                     	;# 
  1730  0D90                     	;# 
  1731  0D91                     	;# 
  1732  0D91                     	;# 
  1733  0D92                     	;# 
  1734  0D93                     	;# 
  1735  0D93                     	;# 
  1736  0D94                     	;# 
  1737  0D95                     	;# 
  1738  0D95                     	;# 
  1739  0D96                     	;# 
  1740  0D97                     	;# 
  1741  0D97                     	;# 
  1742  0D98                     	;# 
  1743  0D99                     	;# 
  1744  0D99                     	;# 
  1745  0D9A                     	;# 
  1746  0D9B                     	;# 
  1747  0D9C                     	;# 
  1748  0D9C                     	;# 
  1749  0D9D                     	;# 
  1750  0D9D                     	;# 
  1751  0D9E                     	;# 
  1752  0D9F                     	;# 
  1753  0DA0                     	;# 
  1754  0DA1                     	;# 
  1755  0DA1                     	;# 
  1756  0DA2                     	;# 
  1757  0DA3                     	;# 
  1758  0DA3                     	;# 
  1759  0DA4                     	;# 
  1760  0DA5                     	;# 
  1761  0DA5                     	;# 
  1762  0DA6                     	;# 
  1763  0DA7                     	;# 
  1764  0DA7                     	;# 
  1765  0DA8                     	;# 
  1766  0DA9                     	;# 
  1767  0DA9                     	;# 
  1768  0DAA                     	;# 
  1769  0DAB                     	;# 
  1770  0DAC                     	;# 
  1771  0DAC                     	;# 
  1772  0DAD                     	;# 
  1773  0DAD                     	;# 
  1774  0DAE                     	;# 
  1775  0DAF                     	;# 
  1776  0DB0                     	;# 
  1777  0DB1                     	;# 
  1778  0DB1                     	;# 
  1779  0DB2                     	;# 
  1780  0DB3                     	;# 
  1781  0DB3                     	;# 
  1782  0DB4                     	;# 
  1783  0DB5                     	;# 
  1784  0DB5                     	;# 
  1785  0DB6                     	;# 
  1786  0DB7                     	;# 
  1787  0DB7                     	;# 
  1788  0DB8                     	;# 
  1789  0DB9                     	;# 
  1790  0DB9                     	;# 
  1791  0DBA                     	;# 
  1792  0DBB                     	;# 
  1793  0DBC                     	;# 
  1794  0DBC                     	;# 
  1795  0DBD                     	;# 
  1796  0DBD                     	;# 
  1797  0DBE                     	;# 
  1798  0DBF                     	;# 
  1799  0DC0                     	;# 
  1800  0DC1                     	;# 
  1801  0DC1                     	;# 
  1802  0DC2                     	;# 
  1803  0DC3                     	;# 
  1804  0DC3                     	;# 
  1805  0DC4                     	;# 
  1806  0DC5                     	;# 
  1807  0DC5                     	;# 
  1808  0DC6                     	;# 
  1809  0DC7                     	;# 
  1810  0DC7                     	;# 
  1811  0DC8                     	;# 
  1812  0DC9                     	;# 
  1813  0DC9                     	;# 
  1814  0DCA                     	;# 
  1815  0DCB                     	;# 
  1816  0DCC                     	;# 
  1817  0DCC                     	;# 
  1818  0DCD                     	;# 
  1819  0DCD                     	;# 
  1820  0DCE                     	;# 
  1821  0DCF                     	;# 
  1822  0DD0                     	;# 
  1823  0E0F                     	;# 
  1824  0E10                     	;# 
  1825  0E11                     	;# 
  1826  0E12                     	;# 
  1827  0E13                     	;# 
  1828  0E14                     	;# 
  1829  0E15                     	;# 
  1830  0E16                     	;# 
  1831  0E17                     	;# 
  1832  0E90                     	;# 
  1833  0E91                     	;# 
  1834  0E92                     	;# 
  1835  0E94                     	;# 
  1836  0E95                     	;# 
  1837  0EA0                     	;# 
  1838  0EA1                     	;# 
  1839  0EA2                     	;# 
  1840  0EA3                     	;# 
  1841  0EA4                     	;# 
  1842  0EA5                     	;# 
  1843  0FE4                     	;# 
  1844  0FE5                     	;# 
  1845  0FE6                     	;# 
  1846  0FE7                     	;# 
  1847  0FE8                     	;# 
  1848  0FE8                     	;# 
  1849  0FE9                     	;# 
  1850  0FEA                     	;# 
  1851  0FEA                     	;# 
  1852  0FEB                     	;# 
  1853  0FED                     	;# 
  1854  0FEE                     	;# 
  1855  0FEE                     	;# 
  1856  0FEF                     	;# 
  1857  0000                     	;# 
  1858  0001                     	;# 
  1859  0002                     	;# 
  1860  0003                     	;# 
  1861  0004                     	;# 
  1862  0005                     	;# 
  1863  0006                     	;# 
  1864  0007                     	;# 
  1865  0008                     	;# 
  1866  0009                     	;# 
  1867  000A                     	;# 
  1868  000B                     	;# 
  1869  000C                     	;# 
  1870  000E                     	;# 
  1871  0011                     	;# 
  1872  0012                     	;# 
  1873  0013                     	;# 
  1874  0015                     	;# 
  1875  0016                     	;# 
  1876  0016                     	;# 
  1877  0017                     	;# 
  1878  0018                     	;# 
  1879  0019                     	;# 
  1880  001A                     	;# 
  1881  001B                     	;# 
  1882  001C                     	;# 
  1883  008C                     	;# 
  1884  008E                     	;# 
  1885  0091                     	;# 
  1886  0092                     	;# 
  1887  0093                     	;# 
  1888  0095                     	;# 
  1889  0096                     	;# 
  1890  0097                     	;# 
  1891  0098                     	;# 
  1892  0099                     	;# 
  1893  009A                     	;# 
  1894  009B                     	;# 
  1895  009B                     	;# 
  1896  009C                     	;# 
  1897  009D                     	;# 
  1898  009E                     	;# 
  1899  009F                     	;# 
  1900  010C                     	;# 
  1901  010E                     	;# 
  1902  0111                     	;# 
  1903  0112                     	;# 
  1904  0113                     	;# 
  1905  0114                     	;# 
  1906  0115                     	;# 
  1907  0116                     	;# 
  1908  0117                     	;# 
  1909  0118                     	;# 
  1910  0119                     	;# 
  1911  018C                     	;# 
  1912  018E                     	;# 
  1913  0191                     	;# 
  1914  0191                     	;# 
  1915  0192                     	;# 
  1916  0193                     	;# 
  1917  0193                     	;# 
  1918  0194                     	;# 
  1919  0195                     	;# 
  1920  0196                     	;# 
  1921  0197                     	;# 
  1922  0199                     	;# 
  1923  019A                     	;# 
  1924  019B                     	;# 
  1925  019B                     	;# 
  1926  019C                     	;# 
  1927  019D                     	;# 
  1928  019E                     	;# 
  1929  019F                     	;# 
  1930  020C                     	;# 
  1931  020E                     	;# 
  1932  028C                     	;# 
  1933  028E                     	;# 
  1934  030C                     	;# 
  1935  030E                     	;# 
  1936  038C                     	;# 
  1937  038E                     	;# 
  1938  0391                     	;# 
  1939  0392                     	;# 
  1940  0393                     	;# 
  1941  0397                     	;# 
  1942  0398                     	;# 
  1943  0399                     	;# 
  1944  0691                     	;# 
  1945  0692                     	;# 
  1946  0693                     	;# 
  1947  0694                     	;# 
  1948  0695                     	;# 
  1949  0D8E                     	;# 
  1950  0D8F                     	;# 
  1951  0D90                     	;# 
  1952  0D91                     	;# 
  1953  0D91                     	;# 
  1954  0D92                     	;# 
  1955  0D93                     	;# 
  1956  0D93                     	;# 
  1957  0D94                     	;# 
  1958  0D95                     	;# 
  1959  0D95                     	;# 
  1960  0D96                     	;# 
  1961  0D97                     	;# 
  1962  0D97                     	;# 
  1963  0D98                     	;# 
  1964  0D99                     	;# 
  1965  0D99                     	;# 
  1966  0D9A                     	;# 
  1967  0D9B                     	;# 
  1968  0D9C                     	;# 
  1969  0D9C                     	;# 
  1970  0D9D                     	;# 
  1971  0D9D                     	;# 
  1972  0D9E                     	;# 
  1973  0D9F                     	;# 
  1974  0DA0                     	;# 
  1975  0DA1                     	;# 
  1976  0DA1                     	;# 
  1977  0DA2                     	;# 
  1978  0DA3                     	;# 
  1979  0DA3                     	;# 
  1980  0DA4                     	;# 
  1981  0DA5                     	;# 
  1982  0DA5                     	;# 
  1983  0DA6                     	;# 
  1984  0DA7                     	;# 
  1985  0DA7                     	;# 
  1986  0DA8                     	;# 
  1987  0DA9                     	;# 
  1988  0DA9                     	;# 
  1989  0DAA                     	;# 
  1990  0DAB                     	;# 
  1991  0DAC                     	;# 
  1992  0DAC                     	;# 
  1993  0DAD                     	;# 
  1994  0DAD                     	;# 
  1995  0DAE                     	;# 
  1996  0DAF                     	;# 
  1997  0DB0                     	;# 
  1998  0DB1                     	;# 
  1999  0DB1                     	;# 
  2000  0DB2                     	;# 
  2001  0DB3                     	;# 
  2002  0DB3                     	;# 
  2003  0DB4                     	;# 
  2004  0DB5                     	;# 
  2005  0DB5                     	;# 
  2006  0DB6                     	;# 
  2007  0DB7                     	;# 
  2008  0DB7                     	;# 
  2009  0DB8                     	;# 
  2010  0DB9                     	;# 
  2011  0DB9                     	;# 
  2012  0DBA                     	;# 
  2013  0DBB                     	;# 
  2014  0DBC                     	;# 
  2015  0DBC                     	;# 
  2016  0DBD                     	;# 
  2017  0DBD                     	;# 
  2018  0DBE                     	;# 
  2019  0DBF                     	;# 
  2020  0DC0                     	;# 
  2021  0DC1                     	;# 
  2022  0DC1                     	;# 
  2023  0DC2                     	;# 
  2024  0DC3                     	;# 
  2025  0DC3                     	;# 
  2026  0DC4                     	;# 
  2027  0DC5                     	;# 
  2028  0DC5                     	;# 
  2029  0DC6                     	;# 
  2030  0DC7                     	;# 
  2031  0DC7                     	;# 
  2032  0DC8                     	;# 
  2033  0DC9                     	;# 
  2034  0DC9                     	;# 
  2035  0DCA                     	;# 
  2036  0DCB                     	;# 
  2037  0DCC                     	;# 
  2038  0DCC                     	;# 
  2039  0DCD                     	;# 
  2040  0DCD                     	;# 
  2041  0DCE                     	;# 
  2042  0DCF                     	;# 
  2043  0DD0                     	;# 
  2044  0E0F                     	;# 
  2045  0E10                     	;# 
  2046  0E11                     	;# 
  2047  0E12                     	;# 
  2048  0E13                     	;# 
  2049  0E14                     	;# 
  2050  0E15                     	;# 
  2051  0E16                     	;# 
  2052  0E17                     	;# 
  2053  0E90                     	;# 
  2054  0E91                     	;# 
  2055  0E92                     	;# 
  2056  0E94                     	;# 
  2057  0E95                     	;# 
  2058  0EA0                     	;# 
  2059  0EA1                     	;# 
  2060  0EA2                     	;# 
  2061  0EA3                     	;# 
  2062  0EA4                     	;# 
  2063  0EA5                     	;# 
  2064  0FE4                     	;# 
  2065  0FE5                     	;# 
  2066  0FE6                     	;# 
  2067  0FE7                     	;# 
  2068  0FE8                     	;# 
  2069  0FE8                     	;# 
  2070  0FE9                     	;# 
  2071  0FEA                     	;# 
  2072  0FEA                     	;# 
  2073  0FEB                     	;# 
  2074  0FED                     	;# 
  2075  0FEE                     	;# 
  2076  0FEE                     	;# 
  2077  0FEF                     	;# 
  2078  0000                     	;# 
  2079  0001                     	;# 
  2080  0002                     	;# 
  2081  0003                     	;# 
  2082  0004                     	;# 
  2083  0005                     	;# 
  2084  0006                     	;# 
  2085  0007                     	;# 
  2086  0008                     	;# 
  2087  0009                     	;# 
  2088  000A                     	;# 
  2089  000B                     	;# 
  2090  000C                     	;# 
  2091  000E                     	;# 
  2092  0011                     	;# 
  2093  0012                     	;# 
  2094  0013                     	;# 
  2095  0015                     	;# 
  2096  0016                     	;# 
  2097  0016                     	;# 
  2098  0017                     	;# 
  2099  0018                     	;# 
  2100  0019                     	;# 
  2101  001A                     	;# 
  2102  001B                     	;# 
  2103  001C                     	;# 
  2104  008C                     	;# 
  2105  008E                     	;# 
  2106  0091                     	;# 
  2107  0092                     	;# 
  2108  0093                     	;# 
  2109  0095                     	;# 
  2110  0096                     	;# 
  2111  0097                     	;# 
  2112  0098                     	;# 
  2113  0099                     	;# 
  2114  009A                     	;# 
  2115  009B                     	;# 
  2116  009B                     	;# 
  2117  009C                     	;# 
  2118  009D                     	;# 
  2119  009E                     	;# 
  2120  009F                     	;# 
  2121  010C                     	;# 
  2122  010E                     	;# 
  2123  0111                     	;# 
  2124  0112                     	;# 
  2125  0113                     	;# 
  2126  0114                     	;# 
  2127  0115                     	;# 
  2128  0116                     	;# 
  2129  0117                     	;# 
  2130  0118                     	;# 
  2131  0119                     	;# 
  2132  018C                     	;# 
  2133  018E                     	;# 
  2134  0191                     	;# 
  2135  0191                     	;# 
  2136  0192                     	;# 
  2137  0193                     	;# 
  2138  0193                     	;# 
  2139  0194                     	;# 
  2140  0195                     	;# 
  2141  0196                     	;# 
  2142  0197                     	;# 
  2143  0199                     	;# 
  2144  019A                     	;# 
  2145  019B                     	;# 
  2146  019B                     	;# 
  2147  019C                     	;# 
  2148  019D                     	;# 
  2149  019E                     	;# 
  2150  019F                     	;# 
  2151  020C                     	;# 
  2152  020E                     	;# 
  2153  028C                     	;# 
  2154  028E                     	;# 
  2155  030C                     	;# 
  2156  030E                     	;# 
  2157  038C                     	;# 
  2158  038E                     	;# 
  2159  0391                     	;# 
  2160  0392                     	;# 
  2161  0393                     	;# 
  2162  0397                     	;# 
  2163  0398                     	;# 
  2164  0399                     	;# 
  2165  0691                     	;# 
  2166  0692                     	;# 
  2167  0693                     	;# 
  2168  0694                     	;# 
  2169  0695                     	;# 
  2170  0D8E                     	;# 
  2171  0D8F                     	;# 
  2172  0D90                     	;# 
  2173  0D91                     	;# 
  2174  0D91                     	;# 
  2175  0D92                     	;# 
  2176  0D93                     	;# 
  2177  0D93                     	;# 
  2178  0D94                     	;# 
  2179  0D95                     	;# 
  2180  0D95                     	;# 
  2181  0D96                     	;# 
  2182  0D97                     	;# 
  2183  0D97                     	;# 
  2184  0D98                     	;# 
  2185  0D99                     	;# 
  2186  0D99                     	;# 
  2187  0D9A                     	;# 
  2188  0D9B                     	;# 
  2189  0D9C                     	;# 
  2190  0D9C                     	;# 
  2191  0D9D                     	;# 
  2192  0D9D                     	;# 
  2193  0D9E                     	;# 
  2194  0D9F                     	;# 
  2195  0DA0                     	;# 
  2196  0DA1                     	;# 
  2197  0DA1                     	;# 
  2198  0DA2                     	;# 
  2199  0DA3                     	;# 
  2200  0DA3                     	;# 
  2201  0DA4                     	;# 
  2202  0DA5                     	;# 
  2203  0DA5                     	;# 
  2204  0DA6                     	;# 
  2205  0DA7                     	;# 
  2206  0DA7                     	;# 
  2207  0DA8                     	;# 
  2208  0DA9                     	;# 
  2209  0DA9                     	;# 
  2210  0DAA                     	;# 
  2211  0DAB                     	;# 
  2212  0DAC                     	;# 
  2213  0DAC                     	;# 
  2214  0DAD                     	;# 
  2215  0DAD                     	;# 
  2216  0DAE                     	;# 
  2217  0DAF                     	;# 
  2218  0DB0                     	;# 
  2219  0DB1                     	;# 
  2220  0DB1                     	;# 
  2221  0DB2                     	;# 
  2222  0DB3                     	;# 
  2223  0DB3                     	;# 
  2224  0DB4                     	;# 
  2225  0DB5                     	;# 
  2226  0DB5                     	;# 
  2227  0DB6                     	;# 
  2228  0DB7                     	;# 
  2229  0DB7                     	;# 
  2230  0DB8                     	;# 
  2231  0DB9                     	;# 
  2232  0DB9                     	;# 
  2233  0DBA                     	;# 
  2234  0DBB                     	;# 
  2235  0DBC                     	;# 
  2236  0DBC                     	;# 
  2237  0DBD                     	;# 
  2238  0DBD                     	;# 
  2239  0DBE                     	;# 
  2240  0DBF                     	;# 
  2241  0DC0                     	;# 
  2242  0DC1                     	;# 
  2243  0DC1                     	;# 
  2244  0DC2                     	;# 
  2245  0DC3                     	;# 
  2246  0DC3                     	;# 
  2247  0DC4                     	;# 
  2248  0DC5                     	;# 
  2249  0DC5                     	;# 
  2250  0DC6                     	;# 
  2251  0DC7                     	;# 
  2252  0DC7                     	;# 
  2253  0DC8                     	;# 
  2254  0DC9                     	;# 
  2255  0DC9                     	;# 
  2256  0DCA                     	;# 
  2257  0DCB                     	;# 
  2258  0DCC                     	;# 
  2259  0DCC                     	;# 
  2260  0DCD                     	;# 
  2261  0DCD                     	;# 
  2262  0DCE                     	;# 
  2263  0DCF                     	;# 
  2264  0DD0                     	;# 
  2265  0E0F                     	;# 
  2266  0E10                     	;# 
  2267  0E11                     	;# 
  2268  0E12                     	;# 
  2269  0E13                     	;# 
  2270  0E14                     	;# 
  2271  0E15                     	;# 
  2272  0E16                     	;# 
  2273  0E17                     	;# 
  2274  0E90                     	;# 
  2275  0E91                     	;# 
  2276  0E92                     	;# 
  2277  0E94                     	;# 
  2278  0E95                     	;# 
  2279  0EA0                     	;# 
  2280  0EA1                     	;# 
  2281  0EA2                     	;# 
  2282  0EA3                     	;# 
  2283  0EA4                     	;# 
  2284  0EA5                     	;# 
  2285  0FE4                     	;# 
  2286  0FE5                     	;# 
  2287  0FE6                     	;# 
  2288  0FE7                     	;# 
  2289  0FE8                     	;# 
  2290  0FE8                     	;# 
  2291  0FE9                     	;# 
  2292  0FEA                     	;# 
  2293  0FEA                     	;# 
  2294  0FEB                     	;# 
  2295  0FED                     	;# 
  2296  0FEE                     	;# 
  2297  0FEE                     	;# 
  2298  0FEF                     	;# 
  2299  0000                     	;# 
  2300  0001                     	;# 
  2301  0002                     	;# 
  2302  0003                     	;# 
  2303  0004                     	;# 
  2304  0005                     	;# 
  2305  0006                     	;# 
  2306  0007                     	;# 
  2307  0008                     	;# 
  2308  0009                     	;# 
  2309  000A                     	;# 
  2310  000B                     	;# 
  2311  000C                     	;# 
  2312  000E                     	;# 
  2313  0011                     	;# 
  2314  0012                     	;# 
  2315  0013                     	;# 
  2316  0015                     	;# 
  2317  0016                     	;# 
  2318  0016                     	;# 
  2319  0017                     	;# 
  2320  0018                     	;# 
  2321  0019                     	;# 
  2322  001A                     	;# 
  2323  001B                     	;# 
  2324  001C                     	;# 
  2325  008C                     	;# 
  2326  008E                     	;# 
  2327  0091                     	;# 
  2328  0092                     	;# 
  2329  0093                     	;# 
  2330  0095                     	;# 
  2331  0096                     	;# 
  2332  0097                     	;# 
  2333  0098                     	;# 
  2334  0099                     	;# 
  2335  009A                     	;# 
  2336  009B                     	;# 
  2337  009B                     	;# 
  2338  009C                     	;# 
  2339  009D                     	;# 
  2340  009E                     	;# 
  2341  009F                     	;# 
  2342  010C                     	;# 
  2343  010E                     	;# 
  2344  0111                     	;# 
  2345  0112                     	;# 
  2346  0113                     	;# 
  2347  0114                     	;# 
  2348  0115                     	;# 
  2349  0116                     	;# 
  2350  0117                     	;# 
  2351  0118                     	;# 
  2352  0119                     	;# 
  2353  018C                     	;# 
  2354  018E                     	;# 
  2355  0191                     	;# 
  2356  0191                     	;# 
  2357  0192                     	;# 
  2358  0193                     	;# 
  2359  0193                     	;# 
  2360  0194                     	;# 
  2361  0195                     	;# 
  2362  0196                     	;# 
  2363  0197                     	;# 
  2364  0199                     	;# 
  2365  019A                     	;# 
  2366  019B                     	;# 
  2367  019B                     	;# 
  2368  019C                     	;# 
  2369  019D                     	;# 
  2370  019E                     	;# 
  2371  019F                     	;# 
  2372  020C                     	;# 
  2373  020E                     	;# 
  2374  028C                     	;# 
  2375  028E                     	;# 
  2376  030C                     	;# 
  2377  030E                     	;# 
  2378  038C                     	;# 
  2379  038E                     	;# 
  2380  0391                     	;# 
  2381  0392                     	;# 
  2382  0393                     	;# 
  2383  0397                     	;# 
  2384  0398                     	;# 
  2385  0399                     	;# 
  2386  0691                     	;# 
  2387  0692                     	;# 
  2388  0693                     	;# 
  2389  0694                     	;# 
  2390  0695                     	;# 
  2391  0D8E                     	;# 
  2392  0D8F                     	;# 
  2393  0D90                     	;# 
  2394  0D91                     	;# 
  2395  0D91                     	;# 
  2396  0D92                     	;# 
  2397  0D93                     	;# 
  2398  0D93                     	;# 
  2399  0D94                     	;# 
  2400  0D95                     	;# 
  2401  0D95                     	;# 
  2402  0D96                     	;# 
  2403  0D97                     	;# 
  2404  0D97                     	;# 
  2405  0D98                     	;# 
  2406  0D99                     	;# 
  2407  0D99                     	;# 
  2408  0D9A                     	;# 
  2409  0D9B                     	;# 
  2410  0D9C                     	;# 
  2411  0D9C                     	;# 
  2412  0D9D                     	;# 
  2413  0D9D                     	;# 
  2414  0D9E                     	;# 
  2415  0D9F                     	;# 
  2416  0DA0                     	;# 
  2417  0DA1                     	;# 
  2418  0DA1                     	;# 
  2419  0DA2                     	;# 
  2420  0DA3                     	;# 
  2421  0DA3                     	;# 
  2422  0DA4                     	;# 
  2423  0DA5                     	;# 
  2424  0DA5                     	;# 
  2425  0DA6                     	;# 
  2426  0DA7                     	;# 
  2427  0DA7                     	;# 
  2428  0DA8                     	;# 
  2429  0DA9                     	;# 
  2430  0DA9                     	;# 
  2431  0DAA                     	;# 
  2432  0DAB                     	;# 
  2433  0DAC                     	;# 
  2434  0DAC                     	;# 
  2435  0DAD                     	;# 
  2436  0DAD                     	;# 
  2437  0DAE                     	;# 
  2438  0DAF                     	;# 
  2439  0DB0                     	;# 
  2440  0DB1                     	;# 
  2441  0DB1                     	;# 
  2442  0DB2                     	;# 
  2443  0DB3                     	;# 
  2444  0DB3                     	;# 
  2445  0DB4                     	;# 
  2446  0DB5                     	;# 
  2447  0DB5                     	;# 
  2448  0DB6                     	;# 
  2449  0DB7                     	;# 
  2450  0DB7                     	;# 
  2451  0DB8                     	;# 
  2452  0DB9                     	;# 
  2453  0DB9                     	;# 
  2454  0DBA                     	;# 
  2455  0DBB                     	;# 
  2456  0DBC                     	;# 
  2457  0DBC                     	;# 
  2458  0DBD                     	;# 
  2459  0DBD                     	;# 
  2460  0DBE                     	;# 
  2461  0DBF                     	;# 
  2462  0DC0                     	;# 
  2463  0DC1                     	;# 
  2464  0DC1                     	;# 
  2465  0DC2                     	;# 
  2466  0DC3                     	;# 
  2467  0DC3                     	;# 
  2468  0DC4                     	;# 
  2469  0DC5                     	;# 
  2470  0DC5                     	;# 
  2471  0DC6                     	;# 
  2472  0DC7                     	;# 
  2473  0DC7                     	;# 
  2474  0DC8                     	;# 
  2475  0DC9                     	;# 
  2476  0DC9                     	;# 
  2477  0DCA                     	;# 
  2478  0DCB                     	;# 
  2479  0DCC                     	;# 
  2480  0DCC                     	;# 
  2481  0DCD                     	;# 
  2482  0DCD                     	;# 
  2483  0DCE                     	;# 
  2484  0DCF                     	;# 
  2485  0DD0                     	;# 
  2486  0E0F                     	;# 
  2487  0E10                     	;# 
  2488  0E11                     	;# 
  2489  0E12                     	;# 
  2490  0E13                     	;# 
  2491  0E14                     	;# 
  2492  0E15                     	;# 
  2493  0E16                     	;# 
  2494  0E17                     	;# 
  2495  0E90                     	;# 
  2496  0E91                     	;# 
  2497  0E92                     	;# 
  2498  0E94                     	;# 
  2499  0E95                     	;# 
  2500  0EA0                     	;# 
  2501  0EA1                     	;# 
  2502  0EA2                     	;# 
  2503  0EA3                     	;# 
  2504  0EA4                     	;# 
  2505  0EA5                     	;# 
  2506  0FE4                     	;# 
  2507  0FE5                     	;# 
  2508  0FE6                     	;# 
  2509  0FE7                     	;# 
  2510  0FE8                     	;# 
  2511  0FE8                     	;# 
  2512  0FE9                     	;# 
  2513  0FEA                     	;# 
  2514  0FEA                     	;# 
  2515  0FEB                     	;# 
  2516  0FED                     	;# 
  2517  0FEE                     	;# 
  2518  0FEE                     	;# 
  2519  0FEF                     	;# 
  2520                           
  2521 ;; Function _EUSART_DefaultFramingErrorHandler is unused but had its address taken
  2522  0000                     
  2523 ;; Function _EUSART_DefaultOverrunErrorHandler is unused but had its address taken
  2524  0000                     
  2525 ;; Function _EUSART_DefaultErrorHandler is unused but had its address taken
  2526  0000                     
  2527                           	psect	idataBANK0
  2528  059F                     __pidataBANK0:	
  2529                           
  2530                           ;initializer for _g
  2531  059F  341D               	retlw	low (STR_1| (0+32768))
  2532  05A0  3485               	retlw	high (STR_1| (0+32768))
  2533                           
  2534                           	psect	stringtext1
  2535  002D                     __pstringtext1:	
  2536  002D                     _SineTab:	
  2537  002D  347F               	retlw	127
  2538  002E  3482               	retlw	130
  2539  002F  3485               	retlw	133
  2540  0030  3488               	retlw	136
  2541  0031  348B               	retlw	139
  2542  0032  348F               	retlw	143
  2543  0033  3492               	retlw	146
  2544  0034  3495               	retlw	149
  2545  0035  3498               	retlw	152
  2546  0036  349B               	retlw	155
  2547  0037  349E               	retlw	158
  2548  0038  34A1               	retlw	161
  2549  0039  34A4               	retlw	164
  2550  003A  34A7               	retlw	167
  2551  003B  34AA               	retlw	170
  2552  003C  34AD               	retlw	173
  2553  003D  34B0               	retlw	176
  2554  003E  34B3               	retlw	179
  2555  003F  34B5               	retlw	181
  2556  0040  34B8               	retlw	184
  2557  0041  34BB               	retlw	187
  2558  0042  34BE               	retlw	190
  2559  0043  34C1               	retlw	193
  2560  0044  34C3               	retlw	195
  2561  0045  34C6               	retlw	198
  2562  0046  34C8               	retlw	200
  2563  0047  34CB               	retlw	203
  2564  0048  34CD               	retlw	205
  2565  0049  34D0               	retlw	208
  2566  004A  34D2               	retlw	210
  2567  004B  34D5               	retlw	213
  2568  004C  34D7               	retlw	215
  2569  004D  34D9               	retlw	217
  2570  004E  34DB               	retlw	219
  2571  004F  34DD               	retlw	221
  2572  0050  34DF               	retlw	223
  2573  0051  34E1               	retlw	225
  2574  0052  34E3               	retlw	227
  2575  0053  34E5               	retlw	229
  2576  0054  34E7               	retlw	231
  2577  0055  34E9               	retlw	233
  2578  0056  34EB               	retlw	235
  2579  0057  34EC               	retlw	236
  2580  0058  34EE               	retlw	238
  2581  0059  34EF               	retlw	239
  2582  005A  34F1               	retlw	241
  2583  005B  34F2               	retlw	242
  2584  005C  34F3               	retlw	243
  2585  005D  34F5               	retlw	245
  2586  005E  34F6               	retlw	246
  2587  005F  34F7               	retlw	247
  2588  0060  34F8               	retlw	248
  2589  0061  34F9               	retlw	249
  2590  0062  34FA               	retlw	250
  2591  0063  34FA               	retlw	250
  2592  0064  34FB               	retlw	251
  2593  0065  34FC               	retlw	252
  2594  0066  34FC               	retlw	252
  2595  0067  34FD               	retlw	253
  2596  0068  34FD               	retlw	253
  2597  0069  34FD               	retlw	253
  2598  006A  34FE               	retlw	254
  2599  006B  34FE               	retlw	254
  2600  006C  34FE               	retlw	254
  2601  006D  34FE               	retlw	254
  2602  006E  34FE               	retlw	254
  2603  006F  34FE               	retlw	254
  2604  0070  34FE               	retlw	254
  2605  0071  34FD               	retlw	253
  2606  0072  34FD               	retlw	253
  2607  0073  34FC               	retlw	252
  2608  0074  34FC               	retlw	252
  2609  0075  34FB               	retlw	251
  2610  0076  34FB               	retlw	251
  2611  0077  34FA               	retlw	250
  2612  0078  34F9               	retlw	249
  2613  0079  34F8               	retlw	248
  2614  007A  34F7               	retlw	247
  2615  007B  34F6               	retlw	246
  2616  007C  34F5               	retlw	245
  2617  007D  34F4               	retlw	244
  2618  007E  34F3               	retlw	243
  2619  007F  34F1               	retlw	241
  2620  0080  34F0               	retlw	240
  2621  0081  34EF               	retlw	239
  2622  0082  34ED               	retlw	237
  2623  0083  34EB               	retlw	235
  2624  0084  34EA               	retlw	234
  2625  0085  34E8               	retlw	232
  2626  0086  34E6               	retlw	230
  2627  0087  34E4               	retlw	228
  2628  0088  34E2               	retlw	226
  2629  0089  34E0               	retlw	224
  2630  008A  34DE               	retlw	222
  2631  008B  34DC               	retlw	220
  2632  008C  34DA               	retlw	218
  2633  008D  34D8               	retlw	216
  2634  008E  34D6               	retlw	214
  2635  008F  34D3               	retlw	211
  2636  0090  34D1               	retlw	209
  2637  0091  34CF               	retlw	207
  2638  0092  34CC               	retlw	204
  2639  0093  34CA               	retlw	202
  2640  0094  34C7               	retlw	199
  2641  0095  34C4               	retlw	196
  2642  0096  34C2               	retlw	194
  2643  0097  34BF               	retlw	191
  2644  0098  34BC               	retlw	188
  2645  0099  34BA               	retlw	186
  2646  009A  34B7               	retlw	183
  2647  009B  34B4               	retlw	180
  2648  009C  34B1               	retlw	177
  2649  009D  34AE               	retlw	174
  2650  009E  34AB               	retlw	171
  2651  009F  34A8               	retlw	168
  2652  00A0  34A6               	retlw	166
  2653  00A1  34A3               	retlw	163
  2654  00A2  349F               	retlw	159
  2655  00A3  349C               	retlw	156
  2656  00A4  3499               	retlw	153
  2657  00A5  3496               	retlw	150
  2658  00A6  3493               	retlw	147
  2659  00A7  3490               	retlw	144
  2660  00A8  348D               	retlw	141
  2661  00A9  348A               	retlw	138
  2662  00AA  3487               	retlw	135
  2663  00AB  3484               	retlw	132
  2664  00AC  3481               	retlw	129
  2665  00AD  347D               	retlw	125
  2666  00AE  347A               	retlw	122
  2667  00AF  3477               	retlw	119
  2668  00B0  3474               	retlw	116
  2669  00B1  3471               	retlw	113
  2670  00B2  346E               	retlw	110
  2671  00B3  346B               	retlw	107
  2672  00B4  3468               	retlw	104
  2673  00B5  3465               	retlw	101
  2674  00B6  3462               	retlw	98
  2675  00B7  345F               	retlw	95
  2676  00B8  345B               	retlw	91
  2677  00B9  3458               	retlw	88
  2678  00BA  3456               	retlw	86
  2679  00BB  3453               	retlw	83
  2680  00BC  3450               	retlw	80
  2681  00BD  344D               	retlw	77
  2682  00BE  344A               	retlw	74
  2683  00BF  3447               	retlw	71
  2684  00C0  3444               	retlw	68
  2685  00C1  3442               	retlw	66
  2686  00C2  343F               	retlw	63
  2687  00C3  343C               	retlw	60
  2688  00C4  343A               	retlw	58
  2689  00C5  3437               	retlw	55
  2690  00C6  3434               	retlw	52
  2691  00C7  3432               	retlw	50
  2692  00C8  342F               	retlw	47
  2693  00C9  342D               	retlw	45
  2694  00CA  342B               	retlw	43
  2695  00CB  3428               	retlw	40
  2696  00CC  3426               	retlw	38
  2697  00CD  3424               	retlw	36
  2698  00CE  3422               	retlw	34
  2699  00CF  3420               	retlw	32
  2700  00D0  341E               	retlw	30
  2701  00D1  341C               	retlw	28
  2702  00D2  341A               	retlw	26
  2703  00D3  3418               	retlw	24
  2704  00D4  3416               	retlw	22
  2705  00D5  3414               	retlw	20
  2706  00D6  3413               	retlw	19
  2707  00D7  3411               	retlw	17
  2708  00D8  340F               	retlw	15
  2709  00D9  340E               	retlw	14
  2710  00DA  340D               	retlw	13
  2711  00DB  340B               	retlw	11
  2712  00DC  340A               	retlw	10
  2713  00DD  3409               	retlw	9
  2714  00DE  3408               	retlw	8
  2715  00DF  3407               	retlw	7
  2716  00E0  3406               	retlw	6
  2717  00E1  3405               	retlw	5
  2718  00E2  3404               	retlw	4
  2719  00E3  3403               	retlw	3
  2720  00E4  3403               	retlw	3
  2721  00E5  3402               	retlw	2
  2722  00E6  3402               	retlw	2
  2723  00E7  3401               	retlw	1
  2724  00E8  3401               	retlw	1
  2725  00E9  3400               	retlw	0
  2726  00EA  3400               	retlw	0
  2727  00EB  3400               	retlw	0
  2728  00EC  3400               	retlw	0
  2729  00ED  3400               	retlw	0
  2730  00EE  3400               	retlw	0
  2731  00EF  3400               	retlw	0
  2732  00F0  3401               	retlw	1
  2733  00F1  3401               	retlw	1
  2734  00F2  3401               	retlw	1
  2735  00F3  3402               	retlw	2
  2736  00F4  3402               	retlw	2
  2737  00F5  3403               	retlw	3
  2738  00F6  3404               	retlw	4
  2739  00F7  3404               	retlw	4
  2740  00F8  3405               	retlw	5
  2741  00F9  3406               	retlw	6
  2742  00FA  3407               	retlw	7
  2743  00FB  3408               	retlw	8
  2744  00FC  3409               	retlw	9
  2745  00FD  340B               	retlw	11
  2746  00FE  340C               	retlw	12
  2747  00FF  340D               	retlw	13
  2748  0100  340F               	retlw	15
  2749  0101  3410               	retlw	16
  2750  0102  3412               	retlw	18
  2751  0103  3413               	retlw	19
  2752  0104  3415               	retlw	21
  2753  0105  3417               	retlw	23
  2754  0106  3419               	retlw	25
  2755  0107  341B               	retlw	27
  2756  0108  341D               	retlw	29
  2757  0109  341F               	retlw	31
  2758  010A  3421               	retlw	33
  2759  010B  3423               	retlw	35
  2760  010C  3425               	retlw	37
  2761  010D  3427               	retlw	39
  2762  010E  3429               	retlw	41
  2763  010F  342C               	retlw	44
  2764  0110  342E               	retlw	46
  2765  0111  3431               	retlw	49
  2766  0112  3433               	retlw	51
  2767  0113  3436               	retlw	54
  2768  0114  3438               	retlw	56
  2769  0115  343B               	retlw	59
  2770  0116  343D               	retlw	61
  2771  0117  3440               	retlw	64
  2772  0118  3443               	retlw	67
  2773  0119  3446               	retlw	70
  2774  011A  3449               	retlw	73
  2775  011B  344B               	retlw	75
  2776  011C  344E               	retlw	78
  2777  011D  3451               	retlw	81
  2778  011E  3454               	retlw	84
  2779  011F  3457               	retlw	87
  2780  0120  345A               	retlw	90
  2781  0121  345D               	retlw	93
  2782  0122  3460               	retlw	96
  2783  0123  3463               	retlw	99
  2784  0124  3466               	retlw	102
  2785  0125  3469               	retlw	105
  2786  0126  346C               	retlw	108
  2787  0127  346F               	retlw	111
  2788  0128  3473               	retlw	115
  2789  0129  3476               	retlw	118
  2790  012A  3479               	retlw	121
  2791  012B  347C               	retlw	124
  2792  012C  347F               	retlw	127
  2793  012D                     __end_of_SineTab:	
  2794                           
  2795                           	psect	nvBANK0
  2796  0068                     __pnvBANK0:	
  2797  0068                     _TMR0_InterruptHandler:	
  2798  0068                     	ds	2
  2799  006A                     _IOCAF5_InterruptHandler:	
  2800  006A                     	ds	2
  2801  006C                     _timer0ReloadVal:	
  2802  006C                     	ds	1
  2803                           
  2804                           	psect	nvBANK1
  2805  00A0                     __pnvBANK1:	
  2806  00A0                     _timer1ReloadVal:	
  2807  00A0                     	ds	2
  2808  00A2                     _EUSART_ErrorHandler:	
  2809  00A2                     	ds	2
  2810  00A4                     _EUSART_OverrunErrorHandler:	
  2811  00A4                     	ds	2
  2812  00A6                     _EUSART_FramingErrorHandler:	
  2813  00A6                     	ds	2
  2814  0019                     _T1GCONbits	set	25
  2815  0018                     _T1CONbits	set	24
  2816  0018                     _T1CON	set	24
  2817  0016                     _TMR1L	set	22
  2818  0017                     _TMR1H	set	23
  2819  0019                     _T1GCON	set	25
  2820  0015                     _TMR0	set	21
  2821  0011                     _PIR1bits	set	17
  2822  000B                     _INTCONbits	set	11
  2823  000E                     _PORTCbits	set	14
  2824  0095                     _OPTION_REG	set	149
  2825  0095                     _OPTION_REGbits	set	149
  2826  008E                     _TRISC	set	142
  2827  008C                     _TRISA	set	140
  2828  0097                     _WDTCON	set	151
  2829  0098                     _OSCTUNE	set	152
  2830  0099                     _OSCCON	set	153
  2831  010E                     _LATC	set	270
  2832  010C                     _LATA	set	268
  2833  0116                     _BORCON	set	278
  2834  010C                     _LATAbits	set	268
  2835  010E                     _LATCbits	set	270
  2836  018C                     _ANSELA	set	396
  2837  018E                     _ANSELC	set	398
  2838  019A                     _TXREG	set	410
  2839  0199                     _RCREG	set	409
  2840  019D                     _RCSTAbits	set	413
  2841  019E                     _TXSTAbits	set	414
  2842  019C                     _SPBRGH	set	412
  2843  019B                     _SPBRGL	set	411
  2844  019E                     _TXSTA	set	414
  2845  019D                     _RCSTA	set	413
  2846  019F                     _BAUDCON	set	415
  2847  020E                     _WPUC	set	526
  2848  020C                     _WPUA	set	524
  2849  028E                     _ODCONC	set	654
  2850  028C                     _ODCONA	set	652
  2851  030E                     _SLRCONC	set	782
  2852  030C                     _SLRCONA	set	780
  2853  0391                     _IOCAPbits	set	913
  2854  0392                     _IOCANbits	set	914
  2855  0393                     _IOCAFbits	set	915
  2856  038E                     _INLVLC	set	910
  2857  038C                     _INLVLA	set	908
  2858  0D9D                     _PWM1INTFbits	set	3485
  2859  0D9F                     _PWM1LDCONbits	set	3487
  2860  0D9B                     _PWM1CONbits	set	3483
  2861  0D9B                     _PWM1CON	set	3483
  2862  0D99                     _PWM1TMRL	set	3481
  2863  0D9A                     _PWM1TMRH	set	3482
  2864  0D97                     _PWM1OFL	set	3479
  2865  0D98                     _PWM1OFH	set	3480
  2866  0D95                     _PWM1PRL	set	3477
  2867  0D96                     _PWM1PRH	set	3478
  2868  0D93                     _PWM1DCL	set	3475
  2869  0D94                     _PWM1DCH	set	3476
  2870  0D91                     _PWM1PHL	set	3473
  2871  0D92                     _PWM1PHH	set	3474
  2872  0DA0                     _PWM1OFCON	set	3488
  2873  0D9F                     _PWM1LDCON	set	3487
  2874  0D9E                     _PWM1CLKCON	set	3486
  2875  0D9D                     _PWM1INTF	set	3485
  2876  0D9C                     _PWM1INTE	set	3484
  2877  0E15                     _RXPPS	set	3605
  2878  0EA4                     _RC4PPS	set	3748
  2879  0EA3                     _RC3PPS	set	3747
  2880                           
  2881                           	psect	stringtext2
  2882  048C                     __pstringtext2:	
  2883  048C                     STR_3:	
  2884  048C  340D               	retlw	13
  2885  048D  340A               	retlw	10
  2886  048E  3453               	retlw	83	;'S'
  2887  048F  3454               	retlw	84	;'T'
  2888  0490  3441               	retlw	65	;'A'
  2889  0491  3454               	retlw	84	;'T'
  2890  0492  3455               	retlw	85	;'U'
  2891  0493  3453               	retlw	83	;'S'
  2892  0494  3420               	retlw	32	;' '
  2893  0495  3452               	retlw	82	;'R'
  2894  0496  3445               	retlw	69	;'E'
  2895  0497  3447               	retlw	71	;'G'
  2896  0498  3449               	retlw	73	;'I'
  2897  0499  3453               	retlw	83	;'S'
  2898  049A  3454               	retlw	84	;'T'
  2899  049B  3445               	retlw	69	;'E'
  2900  049C  3452               	retlw	82	;'R'
  2901  049D  3420               	retlw	32	;' '
  2902  049E  3428               	retlw	40	;'('
  2903  049F  3431               	retlw	49	;'1'
  2904  04A0  3429               	retlw	41	;')'
  2905  04A1  343A               	retlw	58	;':'
  2906  04A2  3420               	retlw	32	;' '
  2907  04A3  3400               	retlw	0
  2908                           
  2909                           	psect	stringtext3
  2910  04E8                     __pstringtext3:	
  2911  04E8                     STR_5:	
  2912  04E8  340D               	retlw	13
  2913  04E9  340A               	retlw	10
  2914  04EA  3441               	retlw	65	;'A'
  2915  04EB  3444               	retlw	68	;'D'
  2916  04EC  3444               	retlw	68	;'D'
  2917  04ED  3452               	retlw	82	;'R'
  2918  04EE  3420               	retlw	32	;' '
  2919  04EF  3450               	retlw	80	;'P'
  2920  04F0  3449               	retlw	73	;'I'
  2921  04F1  3450               	retlw	80	;'P'
  2922  04F2  3445               	retlw	69	;'E'
  2923  04F3  3420               	retlw	32	;' '
  2924  04F4  3430               	retlw	48	;'0'
  2925  04F5  343A               	retlw	58	;':'
  2926  04F6  3420               	retlw	32	;' '
  2927  04F7  343A               	retlw	58	;':'
  2928  04F8  3420               	retlw	32	;' '
  2929  04F9  3400               	retlw	0
  2930                           
  2931                           	psect	stringtext4
  2932  050C                     __pstringtext4:	
  2933  050C                     STR_2:	
  2934  050C  3449               	retlw	73	;'I'
  2935  050D  346E               	retlw	110	;'n'
  2936  050E  3469               	retlw	105	;'i'
  2937  050F  3474               	retlw	116	;'t'
  2938  0510  3469               	retlw	105	;'i'
  2939  0511  3461               	retlw	97	;'a'
  2940  0512  346C               	retlw	108	;'l'
  2941  0513  3469               	retlw	105	;'i'
  2942  0514  347A               	retlw	122	;'z'
  2943  0515  3461               	retlw	97	;'a'
  2944  0516  3474               	retlw	116	;'t'
  2945  0517  3469               	retlw	105	;'i'
  2946  0518  346F               	retlw	111	;'o'
  2947  0519  346E               	retlw	110	;'n'
  2948  051A  340D               	retlw	13
  2949  051B  340A               	retlw	10
  2950  051C  3400               	retlw	0
  2951                           
  2952                           	psect	stringtext5
  2953  051D                     __pstringtext5:	
  2954  051D                     STR_1:	
  2955  051D  3430               	retlw	48	;'0'
  2956  051E  3431               	retlw	49	;'1'
  2957  051F  3432               	retlw	50	;'2'
  2958  0520  3433               	retlw	51	;'3'
  2959  0521  3434               	retlw	52	;'4'
  2960  0522  3435               	retlw	53	;'5'
  2961  0523  3436               	retlw	54	;'6'
  2962  0524  3437               	retlw	55	;'7'
  2963  0525  3438               	retlw	56	;'8'
  2964  0526  3439               	retlw	57	;'9'
  2965  0527  3441               	retlw	65	;'A'
  2966  0528  3442               	retlw	66	;'B'
  2967  0529  3443               	retlw	67	;'C'
  2968  052A  3444               	retlw	68	;'D'
  2969  052B  3445               	retlw	69	;'E'
  2970  052C  3446               	retlw	70	;'F'
  2971  052D  3400               	retlw	0
  2972                           
  2973                           	psect	stringtext6
  2974  0000                     __pstringtext6:	
  2975  051A                     
  2976                           ; #config settings
  2977  0000                     
  2978                           	psect	cinit
  2979  0016                     start_initialization:	
  2980  0016                     __initialization:	
  2981                           
  2982                           ; Initialize objects allocated to BANK0
  2983  0016  3185  259F  3180   	fcall	__pidataBANK0	;fetch initializer
  2984  0019  00ED               	movwf	__pdataBANK0& (0+127)
  2985  001A  3185  25A0         	fcall	__pidataBANK0+1	;fetch initializer
  2986  001C  00EE               	movwf	(__pdataBANK0+1)& (0+127)
  2987                           
  2988                           ; Clear objects allocated to BANK0
  2989  001D  01DC               	clrf	__pbssBANK0& (0+127)
  2990  001E  01DD               	clrf	(__pbssBANK0+1)& (0+127)
  2991  001F  01DE               	clrf	(__pbssBANK0+2)& (0+127)
  2992  0020  01DF               	clrf	(__pbssBANK0+3)& (0+127)
  2993  0021  01E0               	clrf	(__pbssBANK0+4)& (0+127)
  2994  0022  01E1               	clrf	(__pbssBANK0+5)& (0+127)
  2995  0023  01E2               	clrf	(__pbssBANK0+6)& (0+127)
  2996  0024  01E3               	clrf	(__pbssBANK0+7)& (0+127)
  2997  0025  01E4               	clrf	(__pbssBANK0+8)& (0+127)
  2998  0026  01E5               	clrf	(__pbssBANK0+9)& (0+127)
  2999  0027  01E6               	clrf	(__pbssBANK0+10)& (0+127)
  3000  0028  01E7               	clrf	(__pbssBANK0+11)& (0+127)
  3001  0029                     end_of_initialization:	
  3002                           ;End of C runtime variable initialization code
  3003                           
  3004  0029                     __end_of__initialization:	
  3005  0029  107E               	bcf	int$flags,0	;clear compiler interrupt flag (level 1)
  3006  002A  0020               	movlb	0
  3007  002B  3182  2A66         	ljmp	_main	;jump to C main() function
  3008                           
  3009                           	psect	bssBANK0
  3010  005C                     __pbssBANK0:	
  3011  005C                     _TimerTick1ms:	
  3012  005C                     	ds	2
  3013  005E                     _p_NRF_SPI_Exchange:	
  3014  005E                     	ds	2
  3015  0060                     _eusartRxLastError:	
  3016  0060                     	ds	1
  3017  0061                     _NRF_REG_STATUS:	
  3018  0061                     	ds	1
  3019  0062                     _NRF_ADDR_PIPE_0:	
  3020  0062                     	ds	5
  3021  0067                     _NRF_REG_CONFIG:	
  3022  0067                     	ds	1
  3023                           
  3024                           	psect	dataBANK0
  3025  006D                     __pdataBANK0:	
  3026  006D                     _g:	
  3027  006D                     	ds	2
  3028                           
  3029                           	psect	cstackCOMMON
  3030  0070                     __pcstackCOMMON:	
  3031  0070                     ?_EUSART_Write:	
  3032  0070                     ??_EUSART_Write:	
  3033                           ; 1 bytes @ 0x0
  3034                           
  3035  0070                     ?_Set_SPI_Handler:	
  3036                           ; 1 bytes @ 0x0
  3037                           
  3038  0070                     ?_SYSTEM_Initialize:	
  3039                           ; 1 bytes @ 0x0
  3040                           
  3041  0070                     ?_PWM1_Start:	
  3042                           ; 1 bytes @ 0x0
  3043                           
  3044  0070                     ??_PWM1_Start:	
  3045                           ; 1 bytes @ 0x0
  3046                           
  3047  0070                     ?_PWM1_DutyCycleSet:	
  3048                           ; 1 bytes @ 0x0
  3049                           
  3050  0070                     ?_PWM1_LoadBufferSet:	
  3051                           ; 1 bytes @ 0x0
  3052                           
  3053  0070                     ??_PWM1_LoadBufferSet:	
  3054                           ; 1 bytes @ 0x0
  3055                           
  3056  0070                     ?_EUSART_SetFramingErrorHandler:	
  3057                           ; 1 bytes @ 0x0
  3058                           
  3059  0070                     ?_EUSART_SetOverrunErrorHandler:	
  3060                           ; 1 bytes @ 0x0
  3061                           
  3062  0070                     ?_EUSART_SetErrorHandler:	
  3063                           ; 1 bytes @ 0x0
  3064                           
  3065  0070                     ?_TMR0_ISR:	
  3066                           ; 1 bytes @ 0x0
  3067                           
  3068  0070                     ??_TMR0_ISR:	
  3069                           ; 1 bytes @ 0x0
  3070                           
  3071  0070                     ?_PIN_MANAGER_IOC:	
  3072                           ; 1 bytes @ 0x0
  3073                           
  3074  0070                     ??_PIN_MANAGER_IOC:	
  3075                           ; 1 bytes @ 0x0
  3076                           
  3077  0070                     ?_PIN_MANAGER_Initialize:	
  3078                           ; 1 bytes @ 0x0
  3079                           
  3080  0070                     ?_OSCILLATOR_Initialize:	
  3081                           ; 1 bytes @ 0x0
  3082                           
  3083  0070                     ??_OSCILLATOR_Initialize:	
  3084                           ; 1 bytes @ 0x0
  3085                           
  3086  0070                     ?_WDT_Initialize:	
  3087                           ; 1 bytes @ 0x0
  3088                           
  3089  0070                     ??_WDT_Initialize:	
  3090                           ; 1 bytes @ 0x0
  3091                           
  3092  0070                     ?_PWM1_Initialize:	
  3093                           ; 1 bytes @ 0x0
  3094                           
  3095  0070                     ??_PWM1_Initialize:	
  3096                           ; 1 bytes @ 0x0
  3097                           
  3098  0070                     ?_TMR1_Initialize:	
  3099                           ; 1 bytes @ 0x0
  3100                           
  3101  0070                     ??_TMR1_Initialize:	
  3102                           ; 1 bytes @ 0x0
  3103                           
  3104  0070                     ?_TMR0_Initialize:	
  3105                           ; 1 bytes @ 0x0
  3106                           
  3107  0070                     ?_IOCAF5_SetInterruptHandler:	
  3108                           ; 1 bytes @ 0x0
  3109                           
  3110  0070                     ?_IOCAF5_DefaultInterruptHandler:	
  3111                           ; 1 bytes @ 0x0
  3112                           
  3113  0070                     ??_IOCAF5_DefaultInterruptHandler:	
  3114                           ; 1 bytes @ 0x0
  3115                           
  3116  0070                     ?_IOCAF5_ISR:	
  3117                           ; 1 bytes @ 0x0
  3118                           
  3119  0070                     ??_IOCAF5_ISR:	
  3120                           ; 1 bytes @ 0x0
  3121                           
  3122  0070                     ?_TMR0_SetInterruptHandler:	
  3123                           ; 1 bytes @ 0x0
  3124                           
  3125  0070                     ?_TMR0_DefaultInterruptHandler:	
  3126                           ; 1 bytes @ 0x0
  3127                           
  3128  0070                     ??_TMR0_DefaultInterruptHandler:	
  3129                           ; 1 bytes @ 0x0
  3130                           
  3131  0070                     ?_AppInit:	
  3132                           ; 1 bytes @ 0x0
  3133                           
  3134  0070                     ?_SoftSPI_Exchange:	
  3135                           ; 1 bytes @ 0x0
  3136                           
  3137  0070                     ?_NRF24L01_Init:	
  3138                           ; 1 bytes @ 0x0
  3139                           
  3140  0070                     ?_NRF_SET_PRX:	
  3141                           ; 1 bytes @ 0x0
  3142                           
  3143  0070                     ?_main:	
  3144                           ; 1 bytes @ 0x0
  3145                           
  3146  0070                     ?_EUSART_Initialize:	
  3147                           ; 1 bytes @ 0x0
  3148                           
  3149  0070                     ?_INTERRUPT_InterruptManager:	
  3150                           ; 1 bytes @ 0x0
  3151                           
  3152  0070                     ??_INTERRUPT_InterruptManager:	
  3153                           ; 1 bytes @ 0x0
  3154                           
  3155  0070                     ?___lldiv:	
  3156                           ; 1 bytes @ 0x0
  3157                           
  3158  0070                     ?___llmod:	
  3159                           ; 4 bytes @ 0x0
  3160                           
  3161  0070                     SoftSPI_Exchange@TxByte:	
  3162                           ; 4 bytes @ 0x0
  3163                           
  3164  0070                     EUSART_Write@txData:	
  3165                           ; 1 bytes @ 0x0
  3166                           
  3167  0070                     Set_SPI_Handler@SPI_Handler:	
  3168                           ; 1 bytes @ 0x0
  3169                           
  3170  0070                     EUSART_SetFramingErrorHandler@interruptHandler:	
  3171                           ; 2 bytes @ 0x0
  3172                           
  3173  0070                     EUSART_SetOverrunErrorHandler@interruptHandler:	
  3174                           ; 2 bytes @ 0x0
  3175                           
  3176  0070                     EUSART_SetErrorHandler@interruptHandler:	
  3177                           ; 2 bytes @ 0x0
  3178                           
  3179  0070                     IOCAF5_SetInterruptHandler@InterruptHandler:	
  3180                           ; 2 bytes @ 0x0
  3181                           
  3182  0070                     PWM1_DutyCycleSet@dutyCycleCount:	
  3183                           ; 2 bytes @ 0x0
  3184                           
  3185  0070                     TMR0_SetInterruptHandler@InterruptHandler:	
  3186                           ; 2 bytes @ 0x0
  3187                           
  3188  0070                     ___lldiv@divisor:	
  3189                           ; 2 bytes @ 0x0
  3190                           
  3191  0070                     ___llmod@divisor:	
  3192                           ; 4 bytes @ 0x0
  3193                           
  3194                           
  3195                           ; 4 bytes @ 0x0
  3196  0070                     	ds	1
  3197  0071                     ?_PrintUART:	
  3198  0071                     ??_SoftSPI_Exchange:	
  3199                           ; 1 bytes @ 0x1
  3200                           
  3201  0071                     PrintUART@string:	
  3202                           ; 1 bytes @ 0x1
  3203                           
  3204                           
  3205                           ; 2 bytes @ 0x1
  3206  0071                     	ds	1
  3207  0072                     ??_Set_SPI_Handler:	
  3208  0072                     ??_PWM1_DutyCycleSet:	
  3209                           ; 1 bytes @ 0x2
  3210                           
  3211  0072                     ??_EUSART_SetFramingErrorHandler:	
  3212                           ; 1 bytes @ 0x2
  3213                           
  3214  0072                     ??_EUSART_SetOverrunErrorHandler:	
  3215                           ; 1 bytes @ 0x2
  3216                           
  3217  0072                     ??_EUSART_SetErrorHandler:	
  3218                           ; 1 bytes @ 0x2
  3219                           
  3220  0072                     ??_PIN_MANAGER_Initialize:	
  3221                           ; 1 bytes @ 0x2
  3222                           
  3223  0072                     ??_TMR0_Initialize:	
  3224                           ; 1 bytes @ 0x2
  3225                           
  3226  0072                     ??_IOCAF5_SetInterruptHandler:	
  3227                           ; 1 bytes @ 0x2
  3228                           
  3229  0072                     ??_TMR0_SetInterruptHandler:	
  3230                           ; 1 bytes @ 0x2
  3231                           
  3232  0072                     ??_NRF24L01_Init:	
  3233                           ; 1 bytes @ 0x2
  3234                           
  3235  0072                     ??_EUSART_Initialize:	
  3236                           ; 1 bytes @ 0x2
  3237                           
  3238                           
  3239                           ; 1 bytes @ 0x2
  3240  0072                     	ds	1
  3241  0073                     ??_PrintUART:	
  3242  0073                     ??_SYSTEM_Initialize:	
  3243                           ; 1 bytes @ 0x3
  3244                           
  3245  0073                     SoftSPI_Exchange@RxByte:	
  3246                           ; 1 bytes @ 0x3
  3247                           
  3248                           
  3249                           ; 1 bytes @ 0x3
  3250  0073                     	ds	1
  3251  0074                     SoftSPI_Exchange@i:	
  3252  0074                     PrintUART@i:	
  3253                           ; 1 bytes @ 0x4
  3254                           
  3255  0074                     ___lldiv@dividend:	
  3256                           ; 2 bytes @ 0x4
  3257                           
  3258  0074                     ___llmod@dividend:	
  3259                           ; 4 bytes @ 0x4
  3260                           
  3261                           
  3262                           ; 4 bytes @ 0x4
  3263  0074                     	ds	1
  3264  0075                     ?_NRF_Write_Register:	
  3265  0075                     ?_NRF_Read_Register:	
  3266                           ; 1 bytes @ 0x5
  3267                           
  3268  0075                     NRF_Write_Register@Bytes:	
  3269                           ; 1 bytes @ 0x5
  3270                           
  3271  0075                     NRF_Read_Register@Bytes:	
  3272                           ; 1 bytes @ 0x5
  3273                           
  3274                           
  3275                           ; 1 bytes @ 0x5
  3276  0075                     	ds	1
  3277  0076                     ??_AppInit:	
  3278  0076                     NRF_Write_Register@Length:	
  3279                           ; 1 bytes @ 0x6
  3280                           
  3281  0076                     NRF_Read_Register@Length:	
  3282                           ; 1 bytes @ 0x6
  3283                           
  3284                           
  3285                           ; 1 bytes @ 0x6
  3286  0076                     	ds	1
  3287  0077                     ??_NRF_Write_Register:	
  3288  0077                     ??_NRF_Read_Register:	
  3289                           ; 1 bytes @ 0x7
  3290                           
  3291                           
  3292                           ; 1 bytes @ 0x7
  3293  0077                     	ds	1
  3294  0078                     ??___lldiv:	
  3295  0078                     ??___llmod:	
  3296                           ; 1 bytes @ 0x8
  3297                           
  3298                           
  3299                           ; 1 bytes @ 0x8
  3300  0078                     	ds	1
  3301  0079                     NRF_Write_Register@Register:	
  3302  0079                     NRF_Read_Register@Register:	
  3303                           ; 1 bytes @ 0x9
  3304                           
  3305  0079                     ___llmod@counter:	
  3306                           ; 1 bytes @ 0x9
  3307                           
  3308  0079                     ___lldiv@quotient:	
  3309                           ; 1 bytes @ 0x9
  3310                           
  3311                           
  3312                           ; 4 bytes @ 0x9
  3313  0079                     	ds	1
  3314  007A                     NRF_Write_Register@Status:	
  3315  007A                     NRF_Read_Register@Status:	
  3316                           ; 1 bytes @ 0xA
  3317                           
  3318                           
  3319                           ; 1 bytes @ 0xA
  3320  007A                     	ds	3
  3321  007D                     ___lldiv@counter:	
  3322                           
  3323                           ; 1 bytes @ 0xD
  3324  007D                     	ds	1
  3325                           
  3326                           	psect	cstackBANK0
  3327  0020                     __pcstackBANK0:	
  3328  0020                     ?_UART_PNbase:	
  3329  0020                     UART_PNbase@Nbre:	
  3330                           ; 1 bytes @ 0x0
  3331                           
  3332                           
  3333                           ; 4 bytes @ 0x0
  3334  0020                     	ds	4
  3335  0024                     UART_PNbase@Base:	
  3336                           
  3337                           ; 1 bytes @ 0x4
  3338  0024                     	ds	1
  3339  0025                     UART_PNbase@string:	
  3340                           
  3341                           ; 2 bytes @ 0x5
  3342  0025                     	ds	2
  3343  0027                     ??_UART_PNbase:	
  3344                           
  3345                           ; 1 bytes @ 0x7
  3346  0027                     	ds	5
  3347  002C                     UART_PNbase@buf:	
  3348                           
  3349                           ; 32 bytes @ 0xC
  3350  002C                     	ds	32
  3351  004C                     UART_PNbase@i:	
  3352                           
  3353                           ; 1 bytes @ 0x2C
  3354  004C                     	ds	1
  3355  004D                     ??_NRF_SET_PRX:	
  3356                           
  3357                           ; 1 bytes @ 0x2D
  3358  004D                     	ds	6
  3359  0053                     ??_main:	
  3360                           
  3361                           ; 1 bytes @ 0x33
  3362  0053                     	ds	2
  3363  0055                     main@Timeout_1s:	
  3364                           
  3365                           ; 2 bytes @ 0x35
  3366  0055                     	ds	2
  3367  0057                     main@Timeout_100ms:	
  3368                           
  3369                           ; 2 bytes @ 0x37
  3370  0057                     	ds	2
  3371  0059                     main@Timeout_10ms:	
  3372                           
  3373                           ; 2 bytes @ 0x39
  3374  0059                     	ds	2
  3375  005B                     main@cnter:	
  3376                           
  3377                           ; 1 bytes @ 0x3B
  3378  005B                     	ds	1
  3379                           
  3380                           	psect	maintext
  3381  0266                     __pmaintext:	
  3382 ;;
  3383 ;;Main: autosize = 0, tempsize = 2, incstack = 0, save=0
  3384 ;;
  3385 ;; *************** function _main *****************
  3386 ;; Defined at:
  3387 ;;		line 27 in file "main.c"
  3388 ;; Parameters:    Size  Location     Type
  3389 ;;		None
  3390 ;; Auto vars:     Size  Location     Type
  3391 ;;  Timeout_10ms    2   57[BANK0 ] unsigned short 
  3392 ;;  Timeout_100m    2   55[BANK0 ] unsigned short 
  3393 ;;  Timeout_1s      2   53[BANK0 ] unsigned short 
  3394 ;;  cnter           1   59[BANK0 ] unsigned char 
  3395 ;; Return value:  Size  Location     Type
  3396 ;;                  1    wreg      void 
  3397 ;; Registers used:
  3398 ;;		wreg, fsr0l, fsr0h, fsr1l, fsr1h, status,2, status,0, pclath, cstack
  3399 ;; Tracked objects:
  3400 ;;		On entry : B1F/0
  3401 ;;		On exit  : 0/0
  3402 ;;		Unchanged: 0/0
  3403 ;; Data sizes:     COMMON   BANK0   BANK1   BANK2   BANK3   BANK4   BANK5   BANK6   BANK7   BANK8   BANK9  BANK10  BANK1
      +1  BANK12
  3404 ;;      Params:         0       0       0       0       0       0       0       0       0       0       0       0       
      +0       0
  3405 ;;      Locals:         0       7       0       0       0       0       0       0       0       0       0       0       
      +0       0
  3406 ;;      Temps:          0       2       0       0       0       0       0       0       0       0       0       0       
      +0       0
  3407 ;;      Totals:         0       9       0       0       0       0       0       0       0       0       0       0       
      +0       0
  3408 ;;Total ram usage:        9 bytes
  3409 ;; Hardware stack levels required when called:    8
  3410 ;; This function calls:
  3411 ;;		Absolute function
  3412 ;;		_AppInit
  3413 ;;		_NRF24L01_Init
  3414 ;;		_NRF_SET_PRX
  3415 ;;		_PWM1_DutyCycleSet
  3416 ;;		_PWM1_LoadBufferSet
  3417 ;;		_PWM1_Start
  3418 ;;		_SYSTEM_Initialize
  3419 ;;		_SoftSPI_Exchange
  3420 ;; This function is called by:
  3421 ;;		Startup code after reset
  3422 ;; This function uses a non-reentrant model
  3423 ;;
  3424                           
  3425                           
  3426                           ;psect for function _main
  3427  0266                     _main:	
  3428                           
  3429                           ;main.c: 29:     uint16_t Timeout_1s = 0;
  3430                           
  3431                           ;incstack = 0
  3432                           ; Regs used in _main: [wreg-fsr1h+status,2+status,0+pclath+cstack]
  3433  0266  0020               	movlb	0	; select bank0
  3434  0267  01D5               	clrf	main@Timeout_1s
  3435  0268  01D6               	clrf	main@Timeout_1s+1
  3436                           
  3437                           ;main.c: 30:     uint16_t Timeout_100ms = 0;
  3438  0269  01D7               	clrf	main@Timeout_100ms
  3439  026A  01D8               	clrf	main@Timeout_100ms+1
  3440                           
  3441                           ;main.c: 31:     uint16_t Timeout_10ms = 0;
  3442  026B  01D9               	clrf	main@Timeout_10ms
  3443  026C  01DA               	clrf	main@Timeout_10ms+1
  3444                           
  3445                           ;main.c: 32:     uint8_t cnter = 0;
  3446  026D  01DB               	clrf	main@cnter
  3447                           
  3448                           ;main.c: 34:     SYSTEM_Initialize();
  3449  026E  3184  24D3  3182   	fcall	_SYSTEM_Initialize
  3450                           
  3451                           ;main.c: 35:     (INTCONbits.GIE = 1);
  3452  0271  178B               	bsf	11,7	;volatile
  3453                           
  3454                           ;main.c: 36:     (INTCONbits.PEIE = 1);
  3455  0272  170B               	bsf	11,6	;volatile
  3456                           
  3457                           ;main.c: 37:     PWM1_Start();
  3458  0273  3185  2599  3182   	fcall	_PWM1_Start
  3459                           
  3460                           ;main.c: 38:     AppInit();
  3461  0276  3185  2558  3182   	fcall	_AppInit
  3462                           
  3463                           ;main.c: 39:     NRF24L01_Init();
  3464  0279  3184  246D  3182   	fcall	_NRF24L01_Init
  3465                           
  3466                           ;main.c: 40:     _delay((unsigned long)((10)*(8000000/4000.0)));
  3467  027C  301A               	movlw	26
  3468  027D  0020               	movlb	0	; select bank0
  3469  027E  00D3               	movwf	??_main
  3470  027F  30F8               	movlw	248
  3471  0280                     u767:	
  3472  0280  0B89               	decfsz	9,f
  3473  0281  2A80               	goto	u767
  3474  0282  0BD3               	decfsz	??_main,f
  3475  0283  2A80               	goto	u767
  3476  0284  0000               	nop
  3477                           
  3478                           ;main.c: 41:     NRF_SET_PRX();
  3479  0285  3181  212D  3182   	fcall	_NRF_SET_PRX
  3480  0288                     l1896:	
  3481                           
  3482                           ;main.c: 44:     {;main.c: 45:         if (TimerTick1ms > Timeout_10ms)
  3483  0288  0020               	movlb	0	; select bank0
  3484  0289  085D               	movf	_TimerTick1ms+1,w	;volatile
  3485  028A  025A               	subwf	main@Timeout_10ms+1,w
  3486  028B  1D03               	skipz
  3487  028C  2A8F               	goto	u675
  3488  028D  085C               	movf	_TimerTick1ms,w	;volatile
  3489  028E  0259               	subwf	main@Timeout_10ms,w
  3490  028F                     u675:	
  3491  028F  1803               	skipnc
  3492  0290  2ABA               	goto	l1908
  3493                           
  3494                           ;main.c: 46:         {;main.c: 50:             PWM1_DutyCycleSet(SineTab[cnter]);
  3495  0291  085B               	movf	main@cnter,w
  3496  0292  3E2D               	addlw	low (_SineTab| (0+32768))
  3497  0293  0084               	movwf	4
  3498  0294  3080               	movlw	high (_SineTab| (0+32768))
  3499  0295  1803               	skipnc
  3500  0296  3E01               	addlw	1
  3501  0297  0085               	movwf	5
  3502  0298  0800               	movf	0,w	;code access
  3503  0299  00D3               	movwf	??_main
  3504  029A  01D4               	clrf	??_main+1
  3505  029B  0853               	movf	??_main,w
  3506  029C  00F0               	movwf	PWM1_DutyCycleSet@dutyCycleCount
  3507  029D  0854               	movf	??_main+1,w
  3508  029E  00F1               	movwf	PWM1_DutyCycleSet@dutyCycleCount+1
  3509  029F  3185  257D  3182   	fcall	_PWM1_DutyCycleSet
  3510                           
  3511                           ;main.c: 51:             PWM1_LoadBufferSet();
  3512  02A2  3185  259C  3182   	fcall	_PWM1_LoadBufferSet
  3513                           
  3514                           ;main.c: 52:             p_NRF_SPI_Exchange(cnter);
  3515  02A5  0020               	movlb	0	; select bank0
  3516  02A6  085B               	movf	main@cnter,w
  3517  02A7  00D3               	movwf	??_main
  3518  02A8  0853               	movf	??_main,w
  3519  02A9  00F0               	movwf	SoftSPI_Exchange@TxByte
  3520  02AA  085F               	movf	_p_NRF_SPI_Exchange+1,w
  3521  02AB  008A               	movwf	10
  3522  02AC  085E               	movf	_p_NRF_SPI_Exchange,w
  3523  02AD  000A               	callw
  3524  02AE  3182               	pagesel	$
  3525                           
  3526                           ;main.c: 53:             cnter++;
  3527  02AF  3001               	movlw	1
  3528  02B0  0020               	movlb	0	; select bank0
  3529  02B1  00D3               	movwf	??_main
  3530  02B2  0853               	movf	??_main,w
  3531  02B3  07DB               	addwf	main@cnter,f
  3532                           
  3533                           ;main.c: 54:             Timeout_10ms = TimerTick1ms + 10u;
  3534  02B4  085C               	movf	_TimerTick1ms,w	;volatile
  3535  02B5  3E0A               	addlw	10
  3536  02B6  00D9               	movwf	main@Timeout_10ms
  3537  02B7  3000               	movlw	0
  3538  02B8  3D5D               	addwfc	_TimerTick1ms+1,w	;volatile
  3539  02B9  00DA               	movwf	main@Timeout_10ms+1
  3540  02BA                     l1908:	
  3541                           ;main.c: 55:         }
  3542                           
  3543                           
  3544                           ;main.c: 60:         if (TimerTick1ms > Timeout_100ms)
  3545  02BA  085D               	movf	_TimerTick1ms+1,w	;volatile
  3546  02BB  0258               	subwf	main@Timeout_100ms+1,w
  3547  02BC  1D03               	skipz
  3548  02BD  2AC0               	goto	u685
  3549  02BE  085C               	movf	_TimerTick1ms,w	;volatile
  3550  02BF  0257               	subwf	main@Timeout_100ms,w
  3551  02C0                     u685:	
  3552  02C0  1803               	skipnc
  3553  02C1  2AC8               	goto	l1912
  3554                           
  3555                           ;main.c: 61:         {;main.c: 66:             Timeout_100ms = TimerTick1ms + 100u;
  3556  02C2  085C               	movf	_TimerTick1ms,w	;volatile
  3557  02C3  3E64               	addlw	100
  3558  02C4  00D7               	movwf	main@Timeout_100ms
  3559  02C5  3000               	movlw	0
  3560  02C6  3D5D               	addwfc	_TimerTick1ms+1,w	;volatile
  3561  02C7  00D8               	movwf	main@Timeout_100ms+1
  3562  02C8                     l1912:	
  3563                           ;main.c: 67:         }
  3564                           
  3565                           
  3566                           ;main.c: 73:         if (TimerTick1ms > Timeout_1s)
  3567  02C8  085D               	movf	_TimerTick1ms+1,w	;volatile
  3568  02C9  0256               	subwf	main@Timeout_1s+1,w
  3569  02CA  1D03               	skipz
  3570  02CB  2ACE               	goto	u695
  3571  02CC  085C               	movf	_TimerTick1ms,w	;volatile
  3572  02CD  0255               	subwf	main@Timeout_1s,w
  3573  02CE                     u695:	
  3574  02CE  1803               	skipnc
  3575  02CF  2A88               	goto	l1896
  3576                           
  3577                           ;main.c: 74:         {;main.c: 80:             Timeout_1s = TimerTick1ms + 1000u;
  3578  02D0  085C               	movf	_TimerTick1ms,w	;volatile
  3579  02D1  3EE8               	addlw	232
  3580  02D2  00D5               	movwf	main@Timeout_1s
  3581  02D3  3003               	movlw	3
  3582  02D4  3D5D               	addwfc	_TimerTick1ms+1,w	;volatile
  3583  02D5  00D6               	movwf	main@Timeout_1s+1
  3584                           
  3585                           ;main.c: 81:         }
  3586  02D6  2A88               	goto	l1896
  3587  02D7                     __end_of_main:	
  3588                           
  3589                           	psect	text1
  3590  04D3                     __ptext1:	
  3591 ;; *************** function _SYSTEM_Initialize *****************
  3592 ;; Defined at:
  3593 ;;		line 50 in file "01 - SRC/05_MCC_16F1575/mcc.c"
  3594 ;; Parameters:    Size  Location     Type
  3595 ;;		None
  3596 ;; Auto vars:     Size  Location     Type
  3597 ;;		None
  3598 ;; Return value:  Size  Location     Type
  3599 ;;                  1    wreg      void 
  3600 ;; Registers used:
  3601 ;;		wreg, status,2, status,0, pclath, cstack
  3602 ;; Tracked objects:
  3603 ;;		On entry : 0/0
  3604 ;;		On exit  : 0/0
  3605 ;;		Unchanged: 0/0
  3606 ;; Data sizes:     COMMON   BANK0   BANK1   BANK2   BANK3   BANK4   BANK5   BANK6   BANK7   BANK8   BANK9  BANK10  BANK1
      +1  BANK12
  3607 ;;      Params:         0       0       0       0       0       0       0       0       0       0       0       0       
      +0       0
  3608 ;;      Locals:         0       0       0       0       0       0       0       0       0       0       0       0       
      +0       0
  3609 ;;      Temps:          0       0       0       0       0       0       0       0       0       0       0       0       
      +0       0
  3610 ;;      Totals:         0       0       0       0       0       0       0       0       0       0       0       0       
      +0       0
  3611 ;;Total ram usage:        0 bytes
  3612 ;; Hardware stack levels used:    1
  3613 ;; Hardware stack levels required when called:    6
  3614 ;; This function calls:
  3615 ;;		_EUSART_Initialize
  3616 ;;		_OSCILLATOR_Initialize
  3617 ;;		_PIN_MANAGER_Initialize
  3618 ;;		_PWM1_Initialize
  3619 ;;		_TMR0_Initialize
  3620 ;;		_TMR1_Initialize
  3621 ;;		_WDT_Initialize
  3622 ;; This function is called by:
  3623 ;;		_main
  3624 ;; This function uses a non-reentrant model
  3625 ;;
  3626                           
  3627                           
  3628                           ;psect for function _SYSTEM_Initialize
  3629  04D3                     _SYSTEM_Initialize:	
  3630                           
  3631                           ;incstack = 0
  3632                           ; Regs used in _SYSTEM_Initialize: [wreg+status,2+status,0+pclath+cstack]
  3633  04D3  3183  23A0  3184   	fcall	_PIN_MANAGER_Initialize
  3634  04D6  3185  2551  3184   	fcall	_OSCILLATOR_Initialize
  3635  04D9  3185  2595  3184   	fcall	_WDT_Initialize
  3636  04DC  3184  24A4  3184   	fcall	_PWM1_Initialize
  3637  04DF  3184  24FA  3184   	fcall	_TMR1_Initialize
  3638  04E2  3184  24BC  3184   	fcall	_TMR0_Initialize
  3639  04E5  3184  242B         	fcall	_EUSART_Initialize
  3640  04E7  0008               	return
  3641  04E8                     __end_of_SYSTEM_Initialize:	
  3642                           
  3643                           	psect	text2
  3644  0595                     __ptext2:	
  3645 ;; *************** function _WDT_Initialize *****************
  3646 ;; Defined at:
  3647 ;;		line 72 in file "01 - SRC/05_MCC_16F1575/mcc.c"
  3648 ;; Parameters:    Size  Location     Type
  3649 ;;		None
  3650 ;; Auto vars:     Size  Location     Type
  3651 ;;		None
  3652 ;; Return value:  Size  Location     Type
  3653 ;;                  1    wreg      void 
  3654 ;; Registers used:
  3655 ;;		wreg
  3656 ;; Tracked objects:
  3657 ;;		On entry : 0/0
  3658 ;;		On exit  : 0/0
  3659 ;;		Unchanged: 0/0
  3660 ;; Data sizes:     COMMON   BANK0   BANK1   BANK2   BANK3   BANK4   BANK5   BANK6   BANK7   BANK8   BANK9  BANK10  BANK1
      +1  BANK12
  3661 ;;      Params:         0       0       0       0       0       0       0       0       0       0       0       0       
      +0       0
  3662 ;;      Locals:         0       0       0       0       0       0       0       0       0       0       0       0       
      +0       0
  3663 ;;      Temps:          0       0       0       0       0       0       0       0       0       0       0       0       
      +0       0
  3664 ;;      Totals:         0       0       0       0       0       0       0       0       0       0       0       0       
      +0       0
  3665 ;;Total ram usage:        0 bytes
  3666 ;; Hardware stack levels used:    1
  3667 ;; Hardware stack levels required when called:    4
  3668 ;; This function calls:
  3669 ;;		Nothing
  3670 ;; This function is called by:
  3671 ;;		_SYSTEM_Initialize
  3672 ;; This function uses a non-reentrant model
  3673 ;;
  3674                           
  3675                           
  3676                           ;psect for function _WDT_Initialize
  3677  0595                     _WDT_Initialize:	
  3678                           
  3679                           ;incstack = 0
  3680                           ; Regs used in _WDT_Initialize: [wreg]
  3681  0595  3016               	movlw	22
  3682  0596  0021               	movlb	1	; select bank1
  3683  0597  0097               	movwf	23	;volatile
  3684  0598  0008               	return
  3685  0599                     __end_of_WDT_Initialize:	
  3686                           
  3687                           	psect	text3
  3688  04FA                     __ptext3:	
  3689 ;; *************** function _TMR1_Initialize *****************
  3690 ;; Defined at:
  3691 ;;		line 63 in file "01 - SRC/05_MCC_16F1575/tmr1.c"
  3692 ;; Parameters:    Size  Location     Type
  3693 ;;		None
  3694 ;; Auto vars:     Size  Location     Type
  3695 ;;		None
  3696 ;; Return value:  Size  Location     Type
  3697 ;;                  1    wreg      void 
  3698 ;; Registers used:
  3699 ;;		wreg, status,2
  3700 ;; Tracked objects:
  3701 ;;		On entry : 0/0
  3702 ;;		On exit  : 0/0
  3703 ;;		Unchanged: 0/0
  3704 ;; Data sizes:     COMMON   BANK0   BANK1   BANK2   BANK3   BANK4   BANK5   BANK6   BANK7   BANK8   BANK9  BANK10  BANK1
      +1  BANK12
  3705 ;;      Params:         0       0       0       0       0       0       0       0       0       0       0       0       
      +0       0
  3706 ;;      Locals:         0       0       0       0       0       0       0       0       0       0       0       0       
      +0       0
  3707 ;;      Temps:          0       0       0       0       0       0       0       0       0       0       0       0       
      +0       0
  3708 ;;      Totals:         0       0       0       0       0       0       0       0       0       0       0       0       
      +0       0
  3709 ;;Total ram usage:        0 bytes
  3710 ;; Hardware stack levels used:    1
  3711 ;; Hardware stack levels required when called:    4
  3712 ;; This function calls:
  3713 ;;		Nothing
  3714 ;; This function is called by:
  3715 ;;		_SYSTEM_Initialize
  3716 ;; This function uses a non-reentrant model
  3717 ;;
  3718                           
  3719                           
  3720                           ;psect for function _TMR1_Initialize
  3721  04FA                     _TMR1_Initialize:	
  3722                           
  3723                           ;incstack = 0
  3724                           ; Regs used in _TMR1_Initialize: [wreg+status,2]
  3725  04FA  0020               	movlb	0	; select bank0
  3726  04FB  0199               	clrf	25	;volatile
  3727  04FC  30FF               	movlw	255
  3728  04FD  0097               	movwf	23	;volatile
  3729  04FE  30D8               	movlw	216
  3730  04FF  0096               	movwf	22	;volatile
  3731  0500  1011               	bcf	17,0	;volatile
  3732  0501  0817               	movf	23,w	;volatile
  3733  0502  0021               	movlb	1	; select bank1
  3734  0503  00A1               	movwf	(_timer1ReloadVal+1)^(0+128)	;volatile
  3735  0504  0020               	movlb	0	; select bank0
  3736  0505  0816               	movf	22,w	;volatile
  3737  0506  0021               	movlb	1	; select bank1
  3738  0507  00A0               	movwf	_timer1ReloadVal^(0+128)	;volatile
  3739  0508  3041               	movlw	65
  3740  0509  0020               	movlb	0	; select bank0
  3741  050A  0098               	movwf	24	;volatile
  3742  050B  0008               	return
  3743  050C                     __end_of_TMR1_Initialize:	
  3744                           
  3745                           	psect	text4
  3746  04BC                     __ptext4:	
  3747 ;; *************** function _TMR0_Initialize *****************
  3748 ;; Defined at:
  3749 ;;		line 64 in file "01 - SRC/05_MCC_16F1575/tmr0.c"
  3750 ;; Parameters:    Size  Location     Type
  3751 ;;		None
  3752 ;; Auto vars:     Size  Location     Type
  3753 ;;		None
  3754 ;; Return value:  Size  Location     Type
  3755 ;;                  1    wreg      void 
  3756 ;; Registers used:
  3757 ;;		wreg, status,2, status,0, pclath, cstack
  3758 ;; Tracked objects:
  3759 ;;		On entry : 0/0
  3760 ;;		On exit  : 0/0
  3761 ;;		Unchanged: 0/0
  3762 ;; Data sizes:     COMMON   BANK0   BANK1   BANK2   BANK3   BANK4   BANK5   BANK6   BANK7   BANK8   BANK9  BANK10  BANK1
      +1  BANK12
  3763 ;;      Params:         0       0       0       0       0       0       0       0       0       0       0       0       
      +0       0
  3764 ;;      Locals:         0       0       0       0       0       0       0       0       0       0       0       0       
      +0       0
  3765 ;;      Temps:          1       0       0       0       0       0       0       0       0       0       0       0       
      +0       0
  3766 ;;      Totals:         1       0       0       0       0       0       0       0       0       0       0       0       
      +0       0
  3767 ;;Total ram usage:        1 bytes
  3768 ;; Hardware stack levels used:    1
  3769 ;; Hardware stack levels required when called:    5
  3770 ;; This function calls:
  3771 ;;		_TMR0_SetInterruptHandler
  3772 ;; This function is called by:
  3773 ;;		_SYSTEM_Initialize
  3774 ;; This function uses a non-reentrant model
  3775 ;;
  3776                           
  3777                           
  3778                           ;psect for function _TMR0_Initialize
  3779  04BC                     _TMR0_Initialize:	
  3780                           
  3781                           ;incstack = 0
  3782                           ; Regs used in _TMR0_Initialize: [wreg+status,2+status,0+pclath+cstack]
  3783  04BC  0021               	movlb	1	; select bank1
  3784  04BD  0815               	movf	21,w	;volatile
  3785  04BE  39C0               	andlw	192
  3786  04BF  3813               	iorlw	19
  3787  04C0  0095               	movwf	21	;volatile
  3788  04C1  3083               	movlw	131
  3789  04C2  0020               	movlb	0	; select bank0
  3790  04C3  0095               	movwf	21	;volatile
  3791  04C4  3083               	movlw	131
  3792  04C5  00F2               	movwf	??_TMR0_Initialize
  3793  04C6  0872               	movf	??_TMR0_Initialize,w
  3794  04C7  00EC               	movwf	_timer0ReloadVal	;volatile
  3795  04C8  110B               	bcf	11,2	;volatile
  3796  04C9  168B               	bsf	11,5	;volatile
  3797  04CA  01DC               	clrf	_TimerTick1ms	;volatile
  3798  04CB  01DD               	clrf	_TimerTick1ms+1	;volatile
  3799  04CC  3089               	movlw	low _TMR0_DefaultInterruptHandler
  3800  04CD  00F0               	movwf	TMR0_SetInterruptHandler@InterruptHandler
  3801  04CE  3005               	movlw	high _TMR0_DefaultInterruptHandler
  3802  04CF  00F1               	movwf	TMR0_SetInterruptHandler@InterruptHandler+1
  3803  04D0  3185  255F         	fcall	_TMR0_SetInterruptHandler
  3804  04D2  0008               	return
  3805  04D3                     __end_of_TMR0_Initialize:	
  3806                           
  3807                           	psect	text5
  3808  055F                     __ptext5:	
  3809 ;; *************** function _TMR0_SetInterruptHandler *****************
  3810 ;; Defined at:
  3811 ;;		line 125 in file "01 - SRC/05_MCC_16F1575/tmr0.c"
  3812 ;; Parameters:    Size  Location     Type
  3813 ;;  InterruptHan    2    0[COMMON] PTR FTN()void 
  3814 ;;		 -> TMR0_DefaultInterruptHandler(1), 
  3815 ;; Auto vars:     Size  Location     Type
  3816 ;;		None
  3817 ;; Return value:  Size  Location     Type
  3818 ;;                  1    wreg      void 
  3819 ;; Registers used:
  3820 ;;		wreg
  3821 ;; Tracked objects:
  3822 ;;		On entry : 0/0
  3823 ;;		On exit  : 0/0
  3824 ;;		Unchanged: 0/0
  3825 ;; Data sizes:     COMMON   BANK0   BANK1   BANK2   BANK3   BANK4   BANK5   BANK6   BANK7   BANK8   BANK9  BANK10  BANK1
      +1  BANK12
  3826 ;;      Params:         2       0       0       0       0       0       0       0       0       0       0       0       
      +0       0
  3827 ;;      Locals:         0       0       0       0       0       0       0       0       0       0       0       0       
      +0       0
  3828 ;;      Temps:          0       0       0       0       0       0       0       0       0       0       0       0       
      +0       0
  3829 ;;      Totals:         2       0       0       0       0       0       0       0       0       0       0       0       
      +0       0
  3830 ;;Total ram usage:        2 bytes
  3831 ;; Hardware stack levels used:    1
  3832 ;; Hardware stack levels required when called:    4
  3833 ;; This function calls:
  3834 ;;		Nothing
  3835 ;; This function is called by:
  3836 ;;		_TMR0_Initialize
  3837 ;; This function uses a non-reentrant model
  3838 ;;
  3839                           
  3840                           
  3841                           ;psect for function _TMR0_SetInterruptHandler
  3842  055F                     _TMR0_SetInterruptHandler:	
  3843                           
  3844                           ;incstack = 0
  3845                           ; Regs used in _TMR0_SetInterruptHandler: [wreg]
  3846  055F  0871               	movf	TMR0_SetInterruptHandler@InterruptHandler+1,w
  3847  0560  0020               	movlb	0	; select bank0
  3848  0561  00E9               	movwf	_TMR0_InterruptHandler+1
  3849  0562  0870               	movf	TMR0_SetInterruptHandler@InterruptHandler,w
  3850  0563  00E8               	movwf	_TMR0_InterruptHandler
  3851  0564  0008               	return
  3852  0565                     __end_of_TMR0_SetInterruptHandler:	
  3853                           
  3854                           	psect	text6
  3855  04A4                     __ptext6:	
  3856 ;; *************** function _PWM1_Initialize *****************
  3857 ;; Defined at:
  3858 ;;		line 58 in file "01 - SRC/05_MCC_16F1575/pwm1.c"
  3859 ;; Parameters:    Size  Location     Type
  3860 ;;		None
  3861 ;; Auto vars:     Size  Location     Type
  3862 ;;		None
  3863 ;; Return value:  Size  Location     Type
  3864 ;;                  1    wreg      void 
  3865 ;; Registers used:
  3866 ;;		wreg, status,2
  3867 ;; Tracked objects:
  3868 ;;		On entry : 0/0
  3869 ;;		On exit  : 0/0
  3870 ;;		Unchanged: 0/0
  3871 ;; Data sizes:     COMMON   BANK0   BANK1   BANK2   BANK3   BANK4   BANK5   BANK6   BANK7   BANK8   BANK9  BANK10  BANK1
      +1  BANK12
  3872 ;;      Params:         0       0       0       0       0       0       0       0       0       0       0       0       
      +0       0
  3873 ;;      Locals:         0       0       0       0       0       0       0       0       0       0       0       0       
      +0       0
  3874 ;;      Temps:          0       0       0       0       0       0       0       0       0       0       0       0       
      +0       0
  3875 ;;      Totals:         0       0       0       0       0       0       0       0       0       0       0       0       
      +0       0
  3876 ;;Total ram usage:        0 bytes
  3877 ;; Hardware stack levels used:    1
  3878 ;; Hardware stack levels required when called:    4
  3879 ;; This function calls:
  3880 ;;		Nothing
  3881 ;; This function is called by:
  3882 ;;		_SYSTEM_Initialize
  3883 ;; This function uses a non-reentrant model
  3884 ;;
  3885                           
  3886                           
  3887                           ;psect for function _PWM1_Initialize
  3888  04A4                     _PWM1_Initialize:	
  3889                           
  3890                           ;incstack = 0
  3891                           ; Regs used in _PWM1_Initialize: [wreg+status,2]
  3892  04A4  003B               	movlb	27	; select bank27
  3893  04A5  019C               	clrf	28	;volatile
  3894  04A6  019D               	clrf	29	;volatile
  3895  04A7  3020               	movlw	32
  3896  04A8  009E               	movwf	30	;volatile
  3897  04A9  3080               	movlw	128
  3898  04AA  009F               	movwf	31	;volatile
  3899  04AB  01A0               	clrf	32	;volatile
  3900  04AC  0192               	clrf	18	;volatile
  3901  04AD  0191               	clrf	17	;volatile
  3902  04AE  0194               	clrf	20	;volatile
  3903  04AF  307F               	movlw	127
  3904  04B0  0093               	movwf	19	;volatile
  3905  04B1  0196               	clrf	22	;volatile
  3906  04B2  30FE               	movlw	254
  3907  04B3  0095               	movwf	21	;volatile
  3908  04B4  0198               	clrf	24	;volatile
  3909  04B5  3001               	movlw	1
  3910  04B6  0097               	movwf	23	;volatile
  3911  04B7  019A               	clrf	26	;volatile
  3912  04B8  0199               	clrf	25	;volatile
  3913  04B9  3080               	movlw	128
  3914  04BA  009B               	movwf	27	;volatile
  3915  04BB  0008               	return
  3916  04BC                     __end_of_PWM1_Initialize:	
  3917                           
  3918                           	psect	text7
  3919  03A0                     __ptext7:	
  3920 ;; *************** function _PIN_MANAGER_Initialize *****************
  3921 ;; Defined at:
  3922 ;;		line 57 in file "01 - SRC/05_MCC_16F1575/pin_manager.c"
  3923 ;; Parameters:    Size  Location     Type
  3924 ;;		None
  3925 ;; Auto vars:     Size  Location     Type
  3926 ;;		None
  3927 ;; Return value:  Size  Location     Type
  3928 ;;                  1    wreg      void 
  3929 ;; Registers used:
  3930 ;;		wreg, status,2, status,0, pclath, cstack
  3931 ;; Tracked objects:
  3932 ;;		On entry : 0/0
  3933 ;;		On exit  : 0/0
  3934 ;;		Unchanged: 0/0
  3935 ;; Data sizes:     COMMON   BANK0   BANK1   BANK2   BANK3   BANK4   BANK5   BANK6   BANK7   BANK8   BANK9  BANK10  BANK1
      +1  BANK12
  3936 ;;      Params:         0       0       0       0       0       0       0       0       0       0       0       0       
      +0       0
  3937 ;;      Locals:         0       0       0       0       0       0       0       0       0       0       0       0       
      +0       0
  3938 ;;      Temps:          0       0       0       0       0       0       0       0       0       0       0       0       
      +0       0
  3939 ;;      Totals:         0       0       0       0       0       0       0       0       0       0       0       0       
      +0       0
  3940 ;;Total ram usage:        0 bytes
  3941 ;; Hardware stack levels used:    1
  3942 ;; Hardware stack levels required when called:    5
  3943 ;; This function calls:
  3944 ;;		_IOCAF5_SetInterruptHandler
  3945 ;; This function is called by:
  3946 ;;		_SYSTEM_Initialize
  3947 ;; This function uses a non-reentrant model
  3948 ;;
  3949                           
  3950                           
  3951                           ;psect for function _PIN_MANAGER_Initialize
  3952  03A0                     _PIN_MANAGER_Initialize:	
  3953                           
  3954                           ;incstack = 0
  3955                           ; Regs used in _PIN_MANAGER_Initialize: [wreg+status,2+status,0+pclath+cstack]
  3956  03A0  0022               	movlb	2	; select bank2
  3957  03A1  018C               	clrf	12	;volatile
  3958  03A2  018E               	clrf	14	;volatile
  3959  03A3  302B               	movlw	43
  3960  03A4  0021               	movlb	1	; select bank1
  3961  03A5  008C               	movwf	12	;volatile
  3962  03A6  3022               	movlw	34
  3963  03A7  008E               	movwf	14	;volatile
  3964  03A8  0023               	movlb	3	; select bank3
  3965  03A9  018E               	clrf	14	;volatile
  3966  03AA  3001               	movlw	1
  3967  03AB  008C               	movwf	12	;volatile
  3968  03AC  0024               	movlb	4	; select bank4
  3969  03AD  018C               	clrf	12	;volatile
  3970  03AE  018E               	clrf	14	;volatile
  3971  03AF  0021               	movlb	1	; select bank1
  3972  03B0  1795               	bsf	21,7	;volatile
  3973  03B1  0025               	movlb	5	; select bank5
  3974  03B2  018C               	clrf	12	;volatile
  3975  03B3  018E               	clrf	14	;volatile
  3976  03B4  3037               	movlw	55
  3977  03B5  0026               	movlb	6	; select bank6
  3978  03B6  008C               	movwf	12	;volatile
  3979  03B7  303F               	movlw	63
  3980  03B8  008E               	movwf	14	;volatile
  3981  03B9  303F               	movlw	63
  3982  03BA  0027               	movlb	7	; select bank7
  3983  03BB  008C               	movwf	12	;volatile
  3984  03BC  303F               	movlw	63
  3985  03BD  008E               	movwf	14	;volatile
  3986  03BE  1293               	bcf	19,5	;volatile
  3987  03BF  1692               	bsf	18,5	;volatile
  3988  03C0  1291               	bcf	17,5	;volatile
  3989  03C1  30A1               	movlw	low _IOCAF5_DefaultInterruptHandler
  3990  03C2  00F0               	movwf	IOCAF5_SetInterruptHandler@InterruptHandler
  3991  03C3  3005               	movlw	high _IOCAF5_DefaultInterruptHandler
  3992  03C4  00F1               	movwf	IOCAF5_SetInterruptHandler@InterruptHandler+1
  3993  03C5  3185  2565         	fcall	_IOCAF5_SetInterruptHandler
  3994  03C7  158B               	bsf	11,3	;volatile
  3995  03C8  3015               	movlw	21
  3996  03C9  003C               	movlb	28	; select bank28
  3997  03CA  0095               	movwf	21	;volatile
  3998  03CB  3003               	movlw	3
  3999  03CC  003D               	movlb	29	; select bank29
  4000  03CD  00A3               	movwf	35	;volatile
  4001  03CE  3009               	movlw	9
  4002  03CF  00A4               	movwf	36	;volatile
  4003  03D0  0008               	return
  4004  03D1                     __end_of_PIN_MANAGER_Initialize:	
  4005                           
  4006                           	psect	text8
  4007  0565                     __ptext8:	
  4008 ;; *************** function _IOCAF5_SetInterruptHandler *****************
  4009 ;; Defined at:
  4010 ;;		line 154 in file "01 - SRC/05_MCC_16F1575/pin_manager.c"
  4011 ;; Parameters:    Size  Location     Type
  4012 ;;  InterruptHan    2    0[COMMON] PTR FTN()void 
  4013 ;;		 -> IOCAF5_DefaultInterruptHandler(1), 
  4014 ;; Auto vars:     Size  Location     Type
  4015 ;;		None
  4016 ;; Return value:  Size  Location     Type
  4017 ;;                  1    wreg      void 
  4018 ;; Registers used:
  4019 ;;		wreg
  4020 ;; Tracked objects:
  4021 ;;		On entry : 0/0
  4022 ;;		On exit  : 0/0
  4023 ;;		Unchanged: 0/0
  4024 ;; Data sizes:     COMMON   BANK0   BANK1   BANK2   BANK3   BANK4   BANK5   BANK6   BANK7   BANK8   BANK9  BANK10  BANK1
      +1  BANK12
  4025 ;;      Params:         2       0       0       0       0       0       0       0       0       0       0       0       
      +0       0
  4026 ;;      Locals:         0       0       0       0       0       0       0       0       0       0       0       0       
      +0       0
  4027 ;;      Temps:          0       0       0       0       0       0       0       0       0       0       0       0       
      +0       0
  4028 ;;      Totals:         2       0       0       0       0       0       0       0       0       0       0       0       
      +0       0
  4029 ;;Total ram usage:        2 bytes
  4030 ;; Hardware stack levels used:    1
  4031 ;; Hardware stack levels required when called:    4
  4032 ;; This function calls:
  4033 ;;		Nothing
  4034 ;; This function is called by:
  4035 ;;		_PIN_MANAGER_Initialize
  4036 ;; This function uses a non-reentrant model
  4037 ;;
  4038                           
  4039                           
  4040                           ;psect for function _IOCAF5_SetInterruptHandler
  4041  0565                     _IOCAF5_SetInterruptHandler:	
  4042                           
  4043                           ;incstack = 0
  4044                           ; Regs used in _IOCAF5_SetInterruptHandler: [wreg]
  4045  0565  0871               	movf	IOCAF5_SetInterruptHandler@InterruptHandler+1,w
  4046  0566  0020               	movlb	0	; select bank0
  4047  0567  00EB               	movwf	_IOCAF5_InterruptHandler+1
  4048  0568  0870               	movf	IOCAF5_SetInterruptHandler@InterruptHandler,w
  4049  0569  00EA               	movwf	_IOCAF5_InterruptHandler
  4050  056A  0008               	return
  4051  056B                     __end_of_IOCAF5_SetInterruptHandler:	
  4052                           
  4053                           	psect	text9
  4054  0551                     __ptext9:	
  4055 ;; *************** function _OSCILLATOR_Initialize *****************
  4056 ;; Defined at:
  4057 ;;		line 62 in file "01 - SRC/05_MCC_16F1575/mcc.c"
  4058 ;; Parameters:    Size  Location     Type
  4059 ;;		None
  4060 ;; Auto vars:     Size  Location     Type
  4061 ;;		None
  4062 ;; Return value:  Size  Location     Type
  4063 ;;                  1    wreg      void 
  4064 ;; Registers used:
  4065 ;;		wreg, status,2
  4066 ;; Tracked objects:
  4067 ;;		On entry : 0/0
  4068 ;;		On exit  : 0/0
  4069 ;;		Unchanged: 0/0
  4070 ;; Data sizes:     COMMON   BANK0   BANK1   BANK2   BANK3   BANK4   BANK5   BANK6   BANK7   BANK8   BANK9  BANK10  BANK1
      +1  BANK12
  4071 ;;      Params:         0       0       0       0       0       0       0       0       0       0       0       0       
      +0       0
  4072 ;;      Locals:         0       0       0       0       0       0       0       0       0       0       0       0       
      +0       0
  4073 ;;      Temps:          0       0       0       0       0       0       0       0       0       0       0       0       
      +0       0
  4074 ;;      Totals:         0       0       0       0       0       0       0       0       0       0       0       0       
      +0       0
  4075 ;;Total ram usage:        0 bytes
  4076 ;; Hardware stack levels used:    1
  4077 ;; Hardware stack levels required when called:    4
  4078 ;; This function calls:
  4079 ;;		Nothing
  4080 ;; This function is called by:
  4081 ;;		_SYSTEM_Initialize
  4082 ;; This function uses a non-reentrant model
  4083 ;;
  4084                           
  4085                           
  4086                           ;psect for function _OSCILLATOR_Initialize
  4087  0551                     _OSCILLATOR_Initialize:	
  4088                           
  4089                           ;incstack = 0
  4090                           ; Regs used in _OSCILLATOR_Initialize: [wreg+status,2]
  4091  0551  3072               	movlw	114
  4092  0552  0021               	movlb	1	; select bank1
  4093  0553  0099               	movwf	25	;volatile
  4094  0554  0198               	clrf	24	;volatile
  4095  0555  0022               	movlb	2	; select bank2
  4096  0556  0196               	clrf	22	;volatile
  4097  0557  0008               	return
  4098  0558                     __end_of_OSCILLATOR_Initialize:	
  4099                           
  4100                           	psect	text10
  4101  042B                     __ptext10:	
  4102 ;; *************** function _EUSART_Initialize *****************
  4103 ;; Defined at:
  4104 ;;		line 66 in file "01 - SRC/05_MCC_16F1575/eusart.c"
  4105 ;; Parameters:    Size  Location     Type
  4106 ;;		None
  4107 ;; Auto vars:     Size  Location     Type
  4108 ;;		None
  4109 ;; Return value:  Size  Location     Type
  4110 ;;                  1    wreg      void 
  4111 ;; Registers used:
  4112 ;;		wreg, status,2, status,0, pclath, cstack
  4113 ;; Tracked objects:
  4114 ;;		On entry : 0/0
  4115 ;;		On exit  : 0/0
  4116 ;;		Unchanged: 0/0
  4117 ;; Data sizes:     COMMON   BANK0   BANK1   BANK2   BANK3   BANK4   BANK5   BANK6   BANK7   BANK8   BANK9  BANK10  BANK1
      +1  BANK12
  4118 ;;      Params:         0       0       0       0       0       0       0       0       0       0       0       0       
      +0       0
  4119 ;;      Locals:         0       0       0       0       0       0       0       0       0       0       0       0       
      +0       0
  4120 ;;      Temps:          0       0       0       0       0       0       0       0       0       0       0       0       
      +0       0
  4121 ;;      Totals:         0       0       0       0       0       0       0       0       0       0       0       0       
      +0       0
  4122 ;;Total ram usage:        0 bytes
  4123 ;; Hardware stack levels used:    1
  4124 ;; Hardware stack levels required when called:    5
  4125 ;; This function calls:
  4126 ;;		_EUSART_SetErrorHandler
  4127 ;;		_EUSART_SetFramingErrorHandler
  4128 ;;		_EUSART_SetOverrunErrorHandler
  4129 ;; This function is called by:
  4130 ;;		_SYSTEM_Initialize
  4131 ;; This function uses a non-reentrant model
  4132 ;;
  4133                           
  4134                           
  4135                           ;psect for function _EUSART_Initialize
  4136  042B                     _EUSART_Initialize:	
  4137                           
  4138                           ;incstack = 0
  4139                           ; Regs used in _EUSART_Initialize: [wreg+status,2+status,0+pclath+cstack]
  4140  042B  3008               	movlw	8
  4141  042C  0023               	movlb	3	; select bank3
  4142  042D  009F               	movwf	31	;volatile
  4143  042E  3090               	movlw	144
  4144  042F  009D               	movwf	29	;volatile
  4145  0430  3024               	movlw	36
  4146  0431  009E               	movwf	30	;volatile
  4147  0432  3022               	movlw	34
  4148  0433  009B               	movwf	27	;volatile
  4149  0434  019C               	clrf	28	;volatile
  4150  0435  3000               	movlw	0
  4151  0436  00F0               	movwf	EUSART_SetFramingErrorHandler@interruptHandler
  4152  0437  3000               	movlw	0
  4153  0438  00F1               	movwf	EUSART_SetFramingErrorHandler@interruptHandler+1
  4154  0439  3185  2571  3184   	fcall	_EUSART_SetFramingErrorHandler
  4155  043C  3000               	movlw	0
  4156  043D  00F0               	movwf	EUSART_SetOverrunErrorHandler@interruptHandler
  4157  043E  3000               	movlw	0
  4158  043F  00F1               	movwf	EUSART_SetOverrunErrorHandler@interruptHandler+1
  4159  0440  3185  256B  3184   	fcall	_EUSART_SetOverrunErrorHandler
  4160  0443  3000               	movlw	0
  4161  0444  00F0               	movwf	EUSART_SetErrorHandler@interruptHandler
  4162  0445  3000               	movlw	0
  4163  0446  00F1               	movwf	EUSART_SetErrorHandler@interruptHandler+1
  4164  0447  3185  2577         	fcall	_EUSART_SetErrorHandler
  4165  0449  0020               	movlb	0	; select bank0
  4166  044A  01E0               	clrf	_eusartRxLastError	;volatile
  4167  044B  0008               	return
  4168  044C                     __end_of_EUSART_Initialize:	
  4169                           
  4170                           	psect	text11
  4171  056B                     __ptext11:	
  4172 ;; *************** function _EUSART_SetOverrunErrorHandler *****************
  4173 ;; Defined at:
  4174 ;;		line 161 in file "01 - SRC/05_MCC_16F1575/eusart.c"
  4175 ;; Parameters:    Size  Location     Type
  4176 ;;  interruptHan    2    0[COMMON] PTR FTN()void 
  4177 ;;		 -> EUSART_DefaultOverrunErrorHandler(1), 
  4178 ;; Auto vars:     Size  Location     Type
  4179 ;;		None
  4180 ;; Return value:  Size  Location     Type
  4181 ;;                  1    wreg      void 
  4182 ;; Registers used:
  4183 ;;		wreg
  4184 ;; Tracked objects:
  4185 ;;		On entry : 0/0
  4186 ;;		On exit  : 0/0
  4187 ;;		Unchanged: 0/0
  4188 ;; Data sizes:     COMMON   BANK0   BANK1   BANK2   BANK3   BANK4   BANK5   BANK6   BANK7   BANK8   BANK9  BANK10  BANK1
      +1  BANK12
  4189 ;;      Params:         2       0       0       0       0       0       0       0       0       0       0       0       
      +0       0
  4190 ;;      Locals:         0       0       0       0       0       0       0       0       0       0       0       0       
      +0       0
  4191 ;;      Temps:          0       0       0       0       0       0       0       0       0       0       0       0       
      +0       0
  4192 ;;      Totals:         2       0       0       0       0       0       0       0       0       0       0       0       
      +0       0
  4193 ;;Total ram usage:        2 bytes
  4194 ;; Hardware stack levels used:    1
  4195 ;; Hardware stack levels required when called:    4
  4196 ;; This function calls:
  4197 ;;		Nothing
  4198 ;; This function is called by:
  4199 ;;		_EUSART_Initialize
  4200 ;; This function uses a non-reentrant model
  4201 ;;
  4202                           
  4203                           
  4204                           ;psect for function _EUSART_SetOverrunErrorHandler
  4205  056B                     _EUSART_SetOverrunErrorHandler:	
  4206                           
  4207                           ;incstack = 0
  4208                           ; Regs used in _EUSART_SetOverrunErrorHandler: [wreg]
  4209  056B  0871               	movf	EUSART_SetOverrunErrorHandler@interruptHandler+1,w
  4210  056C  0021               	movlb	1	; select bank1
  4211  056D  00A5               	movwf	(_EUSART_OverrunErrorHandler+1)^(0+128)
  4212  056E  0870               	movf	EUSART_SetOverrunErrorHandler@interruptHandler,w
  4213  056F  00A4               	movwf	_EUSART_OverrunErrorHandler^(0+128)
  4214  0570  0008               	return
  4215  0571                     __end_of_EUSART_SetOverrunErrorHandler:	
  4216                           
  4217                           	psect	text12
  4218  0571                     __ptext12:	
  4219 ;; *************** function _EUSART_SetFramingErrorHandler *****************
  4220 ;; Defined at:
  4221 ;;		line 157 in file "01 - SRC/05_MCC_16F1575/eusart.c"
  4222 ;; Parameters:    Size  Location     Type
  4223 ;;  interruptHan    2    0[COMMON] PTR FTN()void 
  4224 ;;		 -> EUSART_DefaultFramingErrorHandler(1), 
  4225 ;; Auto vars:     Size  Location     Type
  4226 ;;		None
  4227 ;; Return value:  Size  Location     Type
  4228 ;;                  1    wreg      void 
  4229 ;; Registers used:
  4230 ;;		wreg
  4231 ;; Tracked objects:
  4232 ;;		On entry : 0/0
  4233 ;;		On exit  : 0/0
  4234 ;;		Unchanged: 0/0
  4235 ;; Data sizes:     COMMON   BANK0   BANK1   BANK2   BANK3   BANK4   BANK5   BANK6   BANK7   BANK8   BANK9  BANK10  BANK1
      +1  BANK12
  4236 ;;      Params:         2       0       0       0       0       0       0       0       0       0       0       0       
      +0       0
  4237 ;;      Locals:         0       0       0       0       0       0       0       0       0       0       0       0       
      +0       0
  4238 ;;      Temps:          0       0       0       0       0       0       0       0       0       0       0       0       
      +0       0
  4239 ;;      Totals:         2       0       0       0       0       0       0       0       0       0       0       0       
      +0       0
  4240 ;;Total ram usage:        2 bytes
  4241 ;; Hardware stack levels used:    1
  4242 ;; Hardware stack levels required when called:    4
  4243 ;; This function calls:
  4244 ;;		Nothing
  4245 ;; This function is called by:
  4246 ;;		_EUSART_Initialize
  4247 ;; This function uses a non-reentrant model
  4248 ;;
  4249                           
  4250                           
  4251                           ;psect for function _EUSART_SetFramingErrorHandler
  4252  0571                     _EUSART_SetFramingErrorHandler:	
  4253                           
  4254                           ;incstack = 0
  4255                           ; Regs used in _EUSART_SetFramingErrorHandler: [wreg]
  4256  0571  0871               	movf	EUSART_SetFramingErrorHandler@interruptHandler+1,w
  4257  0572  0021               	movlb	1	; select bank1
  4258  0573  00A7               	movwf	(_EUSART_FramingErrorHandler+1)^(0+128)
  4259  0574  0870               	movf	EUSART_SetFramingErrorHandler@interruptHandler,w
  4260  0575  00A6               	movwf	_EUSART_FramingErrorHandler^(0+128)
  4261  0576  0008               	return
  4262  0577                     __end_of_EUSART_SetFramingErrorHandler:	
  4263                           
  4264                           	psect	text13
  4265  0577                     __ptext13:	
  4266 ;; *************** function _EUSART_SetErrorHandler *****************
  4267 ;; Defined at:
  4268 ;;		line 165 in file "01 - SRC/05_MCC_16F1575/eusart.c"
  4269 ;; Parameters:    Size  Location     Type
  4270 ;;  interruptHan    2    0[COMMON] PTR FTN()void 
  4271 ;;		 -> EUSART_DefaultErrorHandler(1), 
  4272 ;; Auto vars:     Size  Location     Type
  4273 ;;		None
  4274 ;; Return value:  Size  Location     Type
  4275 ;;                  1    wreg      void 
  4276 ;; Registers used:
  4277 ;;		wreg
  4278 ;; Tracked objects:
  4279 ;;		On entry : 0/0
  4280 ;;		On exit  : 0/0
  4281 ;;		Unchanged: 0/0
  4282 ;; Data sizes:     COMMON   BANK0   BANK1   BANK2   BANK3   BANK4   BANK5   BANK6   BANK7   BANK8   BANK9  BANK10  BANK1
      +1  BANK12
  4283 ;;      Params:         2       0       0       0       0       0       0       0       0       0       0       0       
      +0       0
  4284 ;;      Locals:         0       0       0       0       0       0       0       0       0       0       0       0       
      +0       0
  4285 ;;      Temps:          0       0       0       0       0       0       0       0       0       0       0       0       
      +0       0
  4286 ;;      Totals:         2       0       0       0       0       0       0       0       0       0       0       0       
      +0       0
  4287 ;;Total ram usage:        2 bytes
  4288 ;; Hardware stack levels used:    1
  4289 ;; Hardware stack levels required when called:    4
  4290 ;; This function calls:
  4291 ;;		Nothing
  4292 ;; This function is called by:
  4293 ;;		_EUSART_Initialize
  4294 ;; This function uses a non-reentrant model
  4295 ;;
  4296                           
  4297                           
  4298                           ;psect for function _EUSART_SetErrorHandler
  4299  0577                     _EUSART_SetErrorHandler:	
  4300                           
  4301                           ;incstack = 0
  4302                           ; Regs used in _EUSART_SetErrorHandler: [wreg]
  4303  0577  0871               	movf	EUSART_SetErrorHandler@interruptHandler+1,w
  4304  0578  0021               	movlb	1	; select bank1
  4305  0579  00A3               	movwf	(_EUSART_ErrorHandler+1)^(0+128)
  4306  057A  0870               	movf	EUSART_SetErrorHandler@interruptHandler,w
  4307  057B  00A2               	movwf	_EUSART_ErrorHandler^(0+128)
  4308  057C  0008               	return
  4309  057D                     __end_of_EUSART_SetErrorHandler:	
  4310                           
  4311                           	psect	text14
  4312  0599                     __ptext14:	
  4313 ;; *************** function _PWM1_Start *****************
  4314 ;; Defined at:
  4315 ;;		line 113 in file "01 - SRC/05_MCC_16F1575/pwm1.c"
  4316 ;; Parameters:    Size  Location     Type
  4317 ;;		None
  4318 ;; Auto vars:     Size  Location     Type
  4319 ;;		None
  4320 ;; Return value:  Size  Location     Type
  4321 ;;                  1    wreg      void 
  4322 ;; Registers used:
  4323 ;;		None
  4324 ;; Tracked objects:
  4325 ;;		On entry : 0/0
  4326 ;;		On exit  : 0/0
  4327 ;;		Unchanged: 0/0
  4328 ;; Data sizes:     COMMON   BANK0   BANK1   BANK2   BANK3   BANK4   BANK5   BANK6   BANK7   BANK8   BANK9  BANK10  BANK1
      +1  BANK12
  4329 ;;      Params:         0       0       0       0       0       0       0       0       0       0       0       0       
      +0       0
  4330 ;;      Locals:         0       0       0       0       0       0       0       0       0       0       0       0       
      +0       0
  4331 ;;      Temps:          0       0       0       0       0       0       0       0       0       0       0       0       
      +0       0
  4332 ;;      Totals:         0       0       0       0       0       0       0       0       0       0       0       0       
      +0       0
  4333 ;;Total ram usage:        0 bytes
  4334 ;; Hardware stack levels used:    1
  4335 ;; Hardware stack levels required when called:    4
  4336 ;; This function calls:
  4337 ;;		Nothing
  4338 ;; This function is called by:
  4339 ;;		_main
  4340 ;; This function uses a non-reentrant model
  4341 ;;
  4342                           
  4343                           
  4344                           ;psect for function _PWM1_Start
  4345  0599                     _PWM1_Start:	
  4346                           
  4347                           ;incstack = 0
  4348                           ; Regs used in _PWM1_Start: []
  4349  0599  003B               	movlb	27	; select bank27
  4350  059A  179B               	bsf	27,7	;volatile
  4351  059B  0008               	return
  4352  059C                     __end_of_PWM1_Start:	
  4353                           
  4354                           	psect	text15
  4355  059C                     __ptext15:	
  4356 ;; *************** function _PWM1_LoadBufferSet *****************
  4357 ;; Defined at:
  4358 ;;		line 128 in file "01 - SRC/05_MCC_16F1575/pwm1.c"
  4359 ;; Parameters:    Size  Location     Type
  4360 ;;		None
  4361 ;; Auto vars:     Size  Location     Type
  4362 ;;		None
  4363 ;; Return value:  Size  Location     Type
  4364 ;;                  1    wreg      void 
  4365 ;; Registers used:
  4366 ;;		None
  4367 ;; Tracked objects:
  4368 ;;		On entry : 0/0
  4369 ;;		On exit  : 0/0
  4370 ;;		Unchanged: 0/0
  4371 ;; Data sizes:     COMMON   BANK0   BANK1   BANK2   BANK3   BANK4   BANK5   BANK6   BANK7   BANK8   BANK9  BANK10  BANK1
      +1  BANK12
  4372 ;;      Params:         0       0       0       0       0       0       0       0       0       0       0       0       
      +0       0
  4373 ;;      Locals:         0       0       0       0       0       0       0       0       0       0       0       0       
      +0       0
  4374 ;;      Temps:          0       0       0       0       0       0       0       0       0       0       0       0       
      +0       0
  4375 ;;      Totals:         0       0       0       0       0       0       0       0       0       0       0       0       
      +0       0
  4376 ;;Total ram usage:        0 bytes
  4377 ;; Hardware stack levels used:    1
  4378 ;; Hardware stack levels required when called:    4
  4379 ;; This function calls:
  4380 ;;		Nothing
  4381 ;; This function is called by:
  4382 ;;		_main
  4383 ;; This function uses a non-reentrant model
  4384 ;;
  4385                           
  4386                           
  4387                           ;psect for function _PWM1_LoadBufferSet
  4388  059C                     _PWM1_LoadBufferSet:	
  4389                           
  4390                           ;incstack = 0
  4391                           ; Regs used in _PWM1_LoadBufferSet: []
  4392  059C  003B               	movlb	27	; select bank27
  4393  059D  179F               	bsf	31,7	;volatile
  4394  059E  0008               	return
  4395  059F                     __end_of_PWM1_LoadBufferSet:	
  4396                           
  4397                           	psect	text16
  4398  057D                     __ptext16:	
  4399 ;; *************** function _PWM1_DutyCycleSet *****************
  4400 ;; Defined at:
  4401 ;;		line 139 in file "01 - SRC/05_MCC_16F1575/pwm1.c"
  4402 ;; Parameters:    Size  Location     Type
  4403 ;;  dutyCycleCou    2    0[COMMON] unsigned short 
  4404 ;; Auto vars:     Size  Location     Type
  4405 ;;		None
  4406 ;; Return value:  Size  Location     Type
  4407 ;;                  1    wreg      void 
  4408 ;; Registers used:
  4409 ;;		wreg, status,2
  4410 ;; Tracked objects:
  4411 ;;		On entry : 0/0
  4412 ;;		On exit  : 0/0
  4413 ;;		Unchanged: 0/0
  4414 ;; Data sizes:     COMMON   BANK0   BANK1   BANK2   BANK3   BANK4   BANK5   BANK6   BANK7   BANK8   BANK9  BANK10  BANK1
      +1  BANK12
  4415 ;;      Params:         2       0       0       0       0       0       0       0       0       0       0       0       
      +0       0
  4416 ;;      Locals:         0       0       0       0       0       0       0       0       0       0       0       0       
      +0       0
  4417 ;;      Temps:          0       0       0       0       0       0       0       0       0       0       0       0       
      +0       0
  4418 ;;      Totals:         2       0       0       0       0       0       0       0       0       0       0       0       
      +0       0
  4419 ;;Total ram usage:        2 bytes
  4420 ;; Hardware stack levels used:    1
  4421 ;; Hardware stack levels required when called:    4
  4422 ;; This function calls:
  4423 ;;		Nothing
  4424 ;; This function is called by:
  4425 ;;		_main
  4426 ;; This function uses a non-reentrant model
  4427 ;;
  4428                           
  4429                           
  4430                           ;psect for function _PWM1_DutyCycleSet
  4431  057D                     _PWM1_DutyCycleSet:	
  4432                           
  4433                           ;incstack = 0
  4434                           ; Regs used in _PWM1_DutyCycleSet: [wreg+status,2]
  4435  057D  0871               	movf	PWM1_DutyCycleSet@dutyCycleCount+1,w
  4436  057E  003B               	movlb	27	; select bank27
  4437  057F  0094               	movwf	20	;volatile
  4438  0580  0870               	movf	PWM1_DutyCycleSet@dutyCycleCount,w
  4439  0581  0093               	movwf	19	;volatile
  4440  0582  0008               	return
  4441  0583                     __end_of_PWM1_DutyCycleSet:	
  4442                           
  4443                           	psect	text17
  4444  012D                     __ptext17:	
  4445 ;; *************** function _NRF_SET_PRX *****************
  4446 ;; Defined at:
  4447 ;;		line 24 in file "01 - SRC/03_NRF24L01/NRF24L01.c"
  4448 ;; Parameters:    Size  Location     Type
  4449 ;;		None
  4450 ;; Auto vars:     Size  Location     Type
  4451 ;;  R_CONFIG        1    0        struct .
  4452 ;; Return value:  Size  Location     Type
  4453 ;;                  1    wreg      void 
  4454 ;; Registers used:
  4455 ;;		wreg, fsr0l, fsr0h, fsr1l, fsr1h, status,2, status,0, pclath, cstack
  4456 ;; Tracked objects:
  4457 ;;		On entry : 0/0
  4458 ;;		On exit  : 0/0
  4459 ;;		Unchanged: 0/0
  4460 ;; Data sizes:     COMMON   BANK0   BANK1   BANK2   BANK3   BANK4   BANK5   BANK6   BANK7   BANK8   BANK9  BANK10  BANK1
      +1  BANK12
  4461 ;;      Params:         0       0       0       0       0       0       0       0       0       0       0       0       
      +0       0
  4462 ;;      Locals:         0       1       0       0       0       0       0       0       0       0       0       0       
      +0       0
  4463 ;;      Temps:          0       5       0       0       0       0       0       0       0       0       0       0       
      +0       0
  4464 ;;      Totals:         0       6       0       0       0       0       0       0       0       0       0       0       
      +0       0
  4465 ;;Total ram usage:        6 bytes
  4466 ;; Hardware stack levels used:    1
  4467 ;; Hardware stack levels required when called:    7
  4468 ;; This function calls:
  4469 ;;		_NRF_Read_Register
  4470 ;;		_NRF_Write_Register
  4471 ;;		_PrintUART
  4472 ;;		_UART_PNbase
  4473 ;; This function is called by:
  4474 ;;		_main
  4475 ;; This function uses a non-reentrant model
  4476 ;;
  4477                           
  4478                           
  4479                           ;psect for function _NRF_SET_PRX
  4480  012D                     _NRF_SET_PRX:	
  4481                           
  4482                           ;incstack = 0
  4483                           ; Regs used in _NRF_SET_PRX: [wreg-fsr1h+status,2+status,0+pclath+cstack]
  4484  012D  0020               	movlb	0	; select bank0
  4485  012E  14E7               	bsf	_NRF_REG_CONFIG,1
  4486  012F  15E7               	bsf	_NRF_REG_CONFIG,3
  4487  0130  1467               	bsf	_NRF_REG_CONFIG,0
  4488  0131  3067               	movlw	(low (_NRF_REG_CONFIG| 0))& (0+255)
  4489  0132  00CD               	movwf	??_NRF_SET_PRX
  4490  0133  084D               	movf	??_NRF_SET_PRX,w
  4491  0134  00F5               	movwf	NRF_Write_Register@Bytes
  4492  0135  01F6               	clrf	NRF_Write_Register@Length
  4493  0136  0AF6               	incf	NRF_Write_Register@Length,f
  4494  0137  3000               	movlw	0
  4495  0138  3183  23FF  3181   	fcall	_NRF_Write_Register
  4496  013B  0020               	movlb	0	; select bank0
  4497  013C  00CE               	movwf	??_NRF_SET_PRX+1
  4498  013D  084E               	movf	??_NRF_SET_PRX+1,w
  4499  013E  00E1               	movwf	_NRF_REG_STATUS
  4500  013F  308C               	movlw	low (STR_3| (0+32768))
  4501  0140  00F1               	movwf	PrintUART@string
  4502  0141  3084               	movlw	high (STR_3| (0+32768))
  4503  0142  00F2               	movwf	PrintUART@string+1
  4504  0143  3184  244C  3181   	fcall	_PrintUART
  4505  0146  0020               	movlb	0	; select bank0
  4506  0147  0861               	movf	_NRF_REG_STATUS,w
  4507  0148  00CD               	movwf	??_NRF_SET_PRX
  4508  0149  01CE               	clrf	??_NRF_SET_PRX+1
  4509  014A  01CF               	clrf	??_NRF_SET_PRX+2
  4510  014B  01D0               	clrf	??_NRF_SET_PRX+3
  4511  014C  0850               	movf	??_NRF_SET_PRX+3,w
  4512  014D  00A3               	movwf	UART_PNbase@Nbre+3
  4513  014E  084F               	movf	??_NRF_SET_PRX+2,w
  4514  014F  00A2               	movwf	UART_PNbase@Nbre+2
  4515  0150  084E               	movf	??_NRF_SET_PRX+1,w
  4516  0151  00A1               	movwf	UART_PNbase@Nbre+1
  4517  0152  084D               	movf	??_NRF_SET_PRX,w
  4518  0153  00A0               	movwf	UART_PNbase@Nbre
  4519  0154  3002               	movlw	2
  4520  0155  00D1               	movwf	??_NRF_SET_PRX+4
  4521  0156  0851               	movf	??_NRF_SET_PRX+4,w
  4522  0157  00A4               	movwf	UART_PNbase@Base
  4523  0158  301A               	movlw	low ((STR_2+14)| (0+32768))
  4524  0159  00A5               	movwf	UART_PNbase@string
  4525  015A  3085               	movlw	high ((STR_2+14)| (0+32768))
  4526  015B  00A6               	movwf	UART_PNbase@string+1
  4527  015C  3181  21F4  3181   	fcall	_UART_PNbase
  4528  015F  3062               	movlw	(low (_NRF_ADDR_PIPE_0| 0))& (0+255)
  4529  0160  0020               	movlb	0	; select bank0
  4530  0161  00CD               	movwf	??_NRF_SET_PRX
  4531  0162  084D               	movf	??_NRF_SET_PRX,w
  4532  0163  00F5               	movwf	NRF_Read_Register@Bytes
  4533  0164  3005               	movlw	5
  4534  0165  00CE               	movwf	??_NRF_SET_PRX+1
  4535  0166  084E               	movf	??_NRF_SET_PRX+1,w
  4536  0167  00F6               	movwf	NRF_Read_Register@Length
  4537  0168  300A               	movlw	10
  4538  0169  3183  23D1  3181   	fcall	_NRF_Read_Register
  4539  016C  0020               	movlb	0	; select bank0
  4540  016D  00CF               	movwf	??_NRF_SET_PRX+2
  4541  016E  084F               	movf	??_NRF_SET_PRX+2,w
  4542  016F  00E1               	movwf	_NRF_REG_STATUS
  4543  0170  30E8               	movlw	low (STR_5| (0+32768))
  4544  0171  00F1               	movwf	PrintUART@string
  4545  0172  3084               	movlw	high (STR_5| (0+32768))
  4546  0173  00F2               	movwf	PrintUART@string+1
  4547  0174  3184  244C  3181   	fcall	_PrintUART
  4548  0177  0020               	movlb	0	; select bank0
  4549  0178  0866               	movf	_NRF_ADDR_PIPE_0+4,w
  4550  0179  00CD               	movwf	??_NRF_SET_PRX
  4551  017A  01CE               	clrf	??_NRF_SET_PRX+1
  4552  017B  01CF               	clrf	??_NRF_SET_PRX+2
  4553  017C  01D0               	clrf	??_NRF_SET_PRX+3
  4554  017D  0850               	movf	??_NRF_SET_PRX+3,w
  4555  017E  00A3               	movwf	UART_PNbase@Nbre+3
  4556  017F  084F               	movf	??_NRF_SET_PRX+2,w
  4557  0180  00A2               	movwf	UART_PNbase@Nbre+2
  4558  0181  084E               	movf	??_NRF_SET_PRX+1,w
  4559  0182  00A1               	movwf	UART_PNbase@Nbre+1
  4560  0183  084D               	movf	??_NRF_SET_PRX,w
  4561  0184  00A0               	movwf	UART_PNbase@Nbre
  4562  0185  3010               	movlw	16
  4563  0186  00D1               	movwf	??_NRF_SET_PRX+4
  4564  0187  0851               	movf	??_NRF_SET_PRX+4,w
  4565  0188  00A4               	movwf	UART_PNbase@Base
  4566  0189  30F8               	movlw	low ((STR_5+16)| (0+32768))
  4567  018A  00A5               	movwf	UART_PNbase@string
  4568  018B  3084               	movlw	high ((STR_5+16)| (0+32768))
  4569  018C  00A6               	movwf	UART_PNbase@string+1
  4570  018D  3181  21F4  3181   	fcall	_UART_PNbase
  4571  0190  0020               	movlb	0	; select bank0
  4572  0191  0865               	movf	_NRF_ADDR_PIPE_0+3,w
  4573  0192  00CD               	movwf	??_NRF_SET_PRX
  4574  0193  01CE               	clrf	??_NRF_SET_PRX+1
  4575  0194  01CF               	clrf	??_NRF_SET_PRX+2
  4576  0195  01D0               	clrf	??_NRF_SET_PRX+3
  4577  0196  0850               	movf	??_NRF_SET_PRX+3,w
  4578  0197  00A3               	movwf	UART_PNbase@Nbre+3
  4579  0198  084F               	movf	??_NRF_SET_PRX+2,w
  4580  0199  00A2               	movwf	UART_PNbase@Nbre+2
  4581  019A  084E               	movf	??_NRF_SET_PRX+1,w
  4582  019B  00A1               	movwf	UART_PNbase@Nbre+1
  4583  019C  084D               	movf	??_NRF_SET_PRX,w
  4584  019D  00A0               	movwf	UART_PNbase@Nbre
  4585  019E  3010               	movlw	16
  4586  019F  00D1               	movwf	??_NRF_SET_PRX+4
  4587  01A0  0851               	movf	??_NRF_SET_PRX+4,w
  4588  01A1  00A4               	movwf	UART_PNbase@Base
  4589  01A2  30F8               	movlw	low ((STR_5+16)| (0+32768))
  4590  01A3  00A5               	movwf	UART_PNbase@string
  4591  01A4  3084               	movlw	high ((STR_5+16)| (0+32768))
  4592  01A5  00A6               	movwf	UART_PNbase@string+1
  4593  01A6  3181  21F4  3181   	fcall	_UART_PNbase
  4594  01A9  0020               	movlb	0	; select bank0
  4595  01AA  0864               	movf	_NRF_ADDR_PIPE_0+2,w
  4596  01AB  00CD               	movwf	??_NRF_SET_PRX
  4597  01AC  01CE               	clrf	??_NRF_SET_PRX+1
  4598  01AD  01CF               	clrf	??_NRF_SET_PRX+2
  4599  01AE  01D0               	clrf	??_NRF_SET_PRX+3
  4600  01AF  0850               	movf	??_NRF_SET_PRX+3,w
  4601  01B0  00A3               	movwf	UART_PNbase@Nbre+3
  4602  01B1  084F               	movf	??_NRF_SET_PRX+2,w
  4603  01B2  00A2               	movwf	UART_PNbase@Nbre+2
  4604  01B3  084E               	movf	??_NRF_SET_PRX+1,w
  4605  01B4  00A1               	movwf	UART_PNbase@Nbre+1
  4606  01B5  084D               	movf	??_NRF_SET_PRX,w
  4607  01B6  00A0               	movwf	UART_PNbase@Nbre
  4608  01B7  3010               	movlw	16
  4609  01B8  00D1               	movwf	??_NRF_SET_PRX+4
  4610  01B9  0851               	movf	??_NRF_SET_PRX+4,w
  4611  01BA  00A4               	movwf	UART_PNbase@Base
  4612  01BB  30F8               	movlw	low ((STR_5+16)| (0+32768))
  4613  01BC  00A5               	movwf	UART_PNbase@string
  4614  01BD  3084               	movlw	high ((STR_5+16)| (0+32768))
  4615  01BE  00A6               	movwf	UART_PNbase@string+1
  4616  01BF  3181  21F4  3181   	fcall	_UART_PNbase
  4617  01C2  0020               	movlb	0	; select bank0
  4618  01C3  0863               	movf	_NRF_ADDR_PIPE_0+1,w
  4619  01C4  00CD               	movwf	??_NRF_SET_PRX
  4620  01C5  01CE               	clrf	??_NRF_SET_PRX+1
  4621  01C6  01CF               	clrf	??_NRF_SET_PRX+2
  4622  01C7  01D0               	clrf	??_NRF_SET_PRX+3
  4623  01C8  0850               	movf	??_NRF_SET_PRX+3,w
  4624  01C9  00A3               	movwf	UART_PNbase@Nbre+3
  4625  01CA  084F               	movf	??_NRF_SET_PRX+2,w
  4626  01CB  00A2               	movwf	UART_PNbase@Nbre+2
  4627  01CC  084E               	movf	??_NRF_SET_PRX+1,w
  4628  01CD  00A1               	movwf	UART_PNbase@Nbre+1
  4629  01CE  084D               	movf	??_NRF_SET_PRX,w
  4630  01CF  00A0               	movwf	UART_PNbase@Nbre
  4631  01D0  3010               	movlw	16
  4632  01D1  00D1               	movwf	??_NRF_SET_PRX+4
  4633  01D2  0851               	movf	??_NRF_SET_PRX+4,w
  4634  01D3  00A4               	movwf	UART_PNbase@Base
  4635  01D4  30F8               	movlw	low ((STR_5+16)| (0+32768))
  4636  01D5  00A5               	movwf	UART_PNbase@string
  4637  01D6  3084               	movlw	high ((STR_5+16)| (0+32768))
  4638  01D7  00A6               	movwf	UART_PNbase@string+1
  4639  01D8  3181  21F4  3181   	fcall	_UART_PNbase
  4640  01DB  0020               	movlb	0	; select bank0
  4641  01DC  0862               	movf	_NRF_ADDR_PIPE_0,w
  4642  01DD  00CD               	movwf	??_NRF_SET_PRX
  4643  01DE  01CE               	clrf	??_NRF_SET_PRX+1
  4644  01DF  01CF               	clrf	??_NRF_SET_PRX+2
  4645  01E0  01D0               	clrf	??_NRF_SET_PRX+3
  4646  01E1  0850               	movf	??_NRF_SET_PRX+3,w
  4647  01E2  00A3               	movwf	UART_PNbase@Nbre+3
  4648  01E3  084F               	movf	??_NRF_SET_PRX+2,w
  4649  01E4  00A2               	movwf	UART_PNbase@Nbre+2
  4650  01E5  084E               	movf	??_NRF_SET_PRX+1,w
  4651  01E6  00A1               	movwf	UART_PNbase@Nbre+1
  4652  01E7  084D               	movf	??_NRF_SET_PRX,w
  4653  01E8  00A0               	movwf	UART_PNbase@Nbre
  4654  01E9  3010               	movlw	16
  4655  01EA  00D1               	movwf	??_NRF_SET_PRX+4
  4656  01EB  0851               	movf	??_NRF_SET_PRX+4,w
  4657  01EC  00A4               	movwf	UART_PNbase@Base
  4658  01ED  301A               	movlw	low ((STR_2+14)| (0+32768))
  4659  01EE  00A5               	movwf	UART_PNbase@string
  4660  01EF  3085               	movlw	high ((STR_2+14)| (0+32768))
  4661  01F0  00A6               	movwf	UART_PNbase@string+1
  4662  01F1  3181  21F4         	fcall	_UART_PNbase
  4663  01F3  0008               	return
  4664  01F4                     __end_of_NRF_SET_PRX:	
  4665                           
  4666                           	psect	text18
  4667  01F4                     __ptext18:	
  4668 ;; *************** function _UART_PNbase *****************
  4669 ;; Defined at:
  4670 ;;		line 26 in file "01 - SRC/01_Appli/Application.c"
  4671 ;; Parameters:    Size  Location     Type
  4672 ;;  Nbre            4    0[BANK0 ] unsigned long 
  4673 ;;  Base            1    4[BANK0 ] unsigned char 
  4674 ;;  string          2    5[BANK0 ] PTR unsigned char 
  4675 ;;		 -> STR_10(3), STR_9(2), STR_8(2), STR_7(2), 
  4676 ;;		 -> STR_6(2), STR_4(3), 
  4677 ;; Auto vars:     Size  Location     Type
  4678 ;;  buf            32   12[BANK0 ] unsigned char [32]
  4679 ;;  i               1   44[BANK0 ] unsigned char 
  4680 ;; Return value:  Size  Location     Type
  4681 ;;                  1    wreg      void 
  4682 ;; Registers used:
  4683 ;;		wreg, fsr0l, fsr0h, fsr1l, fsr1h, status,2, status,0, pclath, cstack
  4684 ;; Tracked objects:
  4685 ;;		On entry : 0/0
  4686 ;;		On exit  : 0/0
  4687 ;;		Unchanged: 0/0
  4688 ;; Data sizes:     COMMON   BANK0   BANK1   BANK2   BANK3   BANK4   BANK5   BANK6   BANK7   BANK8   BANK9  BANK10  BANK1
      +1  BANK12
  4689 ;;      Params:         0       7       0       0       0       0       0       0       0       0       0       0       
      +0       0
  4690 ;;      Locals:         0      33       0       0       0       0       0       0       0       0       0       0       
      +0       0
  4691 ;;      Temps:          0       5       0       0       0       0       0       0       0       0       0       0       
      +0       0
  4692 ;;      Totals:         0      45       0       0       0       0       0       0       0       0       0       0       
      +0       0
  4693 ;;Total ram usage:       45 bytes
  4694 ;; Hardware stack levels used:    1
  4695 ;; Hardware stack levels required when called:    6
  4696 ;; This function calls:
  4697 ;;		_EUSART_Write
  4698 ;;		_PrintUART
  4699 ;;		___lldiv
  4700 ;;		___llmod
  4701 ;; This function is called by:
  4702 ;;		_NRF_SET_PRX
  4703 ;; This function uses a non-reentrant model
  4704 ;;
  4705                           
  4706                           
  4707                           ;psect for function _UART_PNbase
  4708  01F4                     _UART_PNbase:	
  4709                           
  4710                           ;incstack = 0
  4711                           ; Regs used in _UART_PNbase: [wreg-fsr1h+status,2+status,0+pclath+cstack]
  4712  01F4  0020               	movlb	0	; select bank0
  4713  01F5  01CC               	clrf	UART_PNbase@i
  4714  01F6                     l1616:	
  4715  01F6  0824               	movf	UART_PNbase@Base,w
  4716  01F7  00A7               	movwf	??_UART_PNbase
  4717  01F8  01A8               	clrf	??_UART_PNbase+1
  4718  01F9  01A9               	clrf	??_UART_PNbase+2
  4719  01FA  01AA               	clrf	??_UART_PNbase+3
  4720  01FB  082A               	movf	??_UART_PNbase+3,w
  4721  01FC  00F3               	movwf	___llmod@divisor+3
  4722  01FD  0829               	movf	??_UART_PNbase+2,w
  4723  01FE  00F2               	movwf	___llmod@divisor+2
  4724  01FF  0828               	movf	??_UART_PNbase+1,w
  4725  0200  00F1               	movwf	___llmod@divisor+1
  4726  0201  0827               	movf	??_UART_PNbase,w
  4727  0202  00F0               	movwf	___llmod@divisor
  4728  0203  0823               	movf	UART_PNbase@Nbre+3,w
  4729  0204  00F7               	movwf	___llmod@dividend+3
  4730  0205  0822               	movf	UART_PNbase@Nbre+2,w
  4731  0206  00F6               	movwf	___llmod@dividend+2
  4732  0207  0821               	movf	UART_PNbase@Nbre+1,w
  4733  0208  00F5               	movwf	___llmod@dividend+1
  4734  0209  0820               	movf	UART_PNbase@Nbre,w
  4735  020A  00F4               	movwf	___llmod@dividend
  4736  020B  3183  2329  3181   	fcall	___llmod
  4737  020E  0871               	movf	?___llmod+1,w
  4738  020F  0085               	movwf	5
  4739  0210  0870               	movf	?___llmod,w
  4740  0211  0084               	movwf	4
  4741  0212  301D               	movlw	low (STR_1| (0+32768))
  4742  0213  0784               	addwf	4,f
  4743  0214  3085               	movlw	high (STR_1| (0+32768))
  4744  0215  3D85               	addwfc	5,f
  4745  0216  0800               	movf	0,w	;code access
  4746  0217  0020               	movlb	0	; select bank0
  4747  0218  00AB               	movwf	??_UART_PNbase+4
  4748  0219  084C               	movf	UART_PNbase@i,w
  4749  021A  3E2C               	addlw	(low (UART_PNbase@buf| 0))& (0+255)
  4750  021B  0086               	movwf	6
  4751  021C  0187               	clrf	7
  4752  021D  082B               	movf	??_UART_PNbase+4,w
  4753  021E  0081               	movwf	1
  4754  021F  0824               	movf	UART_PNbase@Base,w
  4755  0220  00A7               	movwf	??_UART_PNbase
  4756  0221  01A8               	clrf	??_UART_PNbase+1
  4757  0222  01A9               	clrf	??_UART_PNbase+2
  4758  0223  01AA               	clrf	??_UART_PNbase+3
  4759  0224  082A               	movf	??_UART_PNbase+3,w
  4760  0225  00F3               	movwf	___lldiv@divisor+3
  4761  0226  0829               	movf	??_UART_PNbase+2,w
  4762  0227  00F2               	movwf	___lldiv@divisor+2
  4763  0228  0828               	movf	??_UART_PNbase+1,w
  4764  0229  00F1               	movwf	___lldiv@divisor+1
  4765  022A  0827               	movf	??_UART_PNbase,w
  4766  022B  00F0               	movwf	___lldiv@divisor
  4767  022C  0823               	movf	UART_PNbase@Nbre+3,w
  4768  022D  00F7               	movwf	___lldiv@dividend+3
  4769  022E  0822               	movf	UART_PNbase@Nbre+2,w
  4770  022F  00F6               	movwf	___lldiv@dividend+2
  4771  0230  0821               	movf	UART_PNbase@Nbre+1,w
  4772  0231  00F5               	movwf	___lldiv@dividend+1
  4773  0232  0820               	movf	UART_PNbase@Nbre,w
  4774  0233  00F4               	movwf	___lldiv@dividend
  4775  0234  3182  22D7  3181   	fcall	___lldiv
  4776  0237  0873               	movf	?___lldiv+3,w
  4777  0238  0020               	movlb	0	; select bank0
  4778  0239  00A3               	movwf	UART_PNbase@Nbre+3
  4779  023A  0872               	movf	?___lldiv+2,w
  4780  023B  00A2               	movwf	UART_PNbase@Nbre+2
  4781  023C  0871               	movf	?___lldiv+1,w
  4782  023D  00A1               	movwf	UART_PNbase@Nbre+1
  4783  023E  0870               	movf	?___lldiv,w
  4784  023F  00A0               	movwf	UART_PNbase@Nbre
  4785  0240  3001               	movlw	1
  4786  0241  00A7               	movwf	??_UART_PNbase
  4787  0242  0827               	movf	??_UART_PNbase,w
  4788  0243  07CC               	addwf	UART_PNbase@i,f
  4789  0244  0823               	movf	UART_PNbase@Nbre+3,w
  4790  0245  0422               	iorwf	UART_PNbase@Nbre+2,w
  4791  0246  0421               	iorwf	UART_PNbase@Nbre+1,w
  4792  0247  0420               	iorwf	UART_PNbase@Nbre,w
  4793  0248  1D03               	skipz
  4794  0249  29F6               	goto	l1616
  4795  024A                     l1624:	
  4796  024A  3001               	movlw	1
  4797  024B  02CC               	subwf	UART_PNbase@i,f
  4798  024C  084C               	movf	UART_PNbase@i,w
  4799  024D  3E2C               	addlw	(low (UART_PNbase@buf| 0))& (0+255)
  4800  024E  0086               	movwf	6
  4801  024F  0187               	clrf	7
  4802  0250  0801               	movf	1,w
  4803  0251  3185  2549  3181   	fcall	_EUSART_Write
  4804  0254  0020               	movlb	0	; select bank0
  4805  0255  084C               	movf	UART_PNbase@i,w
  4806  0256  1D03               	btfss	3,2
  4807  0257  2A4A               	goto	l1624
  4808  0258  0825               	movf	UART_PNbase@string,w
  4809  0259  0084               	movwf	4
  4810  025A  0826               	movf	UART_PNbase@string+1,w
  4811  025B  0085               	movwf	5
  4812  025C  0012               	moviw fsr0++
  4813  025D  1903               	btfsc	3,2
  4814  025E  0008               	return
  4815  025F  0826               	movf	UART_PNbase@string+1,w
  4816  0260  00F2               	movwf	PrintUART@string+1
  4817  0261  0825               	movf	UART_PNbase@string,w
  4818  0262  00F1               	movwf	PrintUART@string
  4819  0263  3184  244C         	fcall	_PrintUART
  4820  0265  0008               	return
  4821  0266                     __end_of_UART_PNbase:	
  4822                           
  4823                           	psect	text19
  4824  0329                     __ptext19:	
  4825 ;; *************** function ___llmod *****************
  4826 ;; Defined at:
  4827 ;;		line 5 in file "C:\Program Files (x86)\Microchip\xc8\v2.05\pic\sources\c99\common\llmod.c"
  4828 ;; Parameters:    Size  Location     Type
  4829 ;;  divisor         4    0[COMMON] unsigned long 
  4830 ;;  dividend        4    4[COMMON] unsigned long 
  4831 ;; Auto vars:     Size  Location     Type
  4832 ;;  counter         1    9[COMMON] unsigned char 
  4833 ;; Return value:  Size  Location     Type
  4834 ;;                  4    0[COMMON] unsigned long 
  4835 ;; Registers used:
  4836 ;;		wreg, status,2, status,0
  4837 ;; Tracked objects:
  4838 ;;		On entry : 0/0
  4839 ;;		On exit  : 0/0
  4840 ;;		Unchanged: 0/0
  4841 ;; Data sizes:     COMMON   BANK0   BANK1   BANK2   BANK3   BANK4   BANK5   BANK6   BANK7   BANK8   BANK9  BANK10  BANK1
      +1  BANK12
  4842 ;;      Params:         8       0       0       0       0       0       0       0       0       0       0       0       
      +0       0
  4843 ;;      Locals:         1       0       0       0       0       0       0       0       0       0       0       0       
      +0       0
  4844 ;;      Temps:          1       0       0       0       0       0       0       0       0       0       0       0       
      +0       0
  4845 ;;      Totals:        10       0       0       0       0       0       0       0       0       0       0       0       
      +0       0
  4846 ;;Total ram usage:       10 bytes
  4847 ;; Hardware stack levels used:    1
  4848 ;; Hardware stack levels required when called:    4
  4849 ;; This function calls:
  4850 ;;		Nothing
  4851 ;; This function is called by:
  4852 ;;		_UART_PNbase
  4853 ;; This function uses a non-reentrant model
  4854 ;;
  4855                           
  4856                           
  4857                           ;psect for function ___llmod
  4858  0329                     ___llmod:	
  4859                           
  4860                           ;incstack = 0
  4861                           ; Regs used in ___llmod: [wreg+status,2+status,0]
  4862  0329  0873               	movf	___llmod@divisor+3,w
  4863  032A  0472               	iorwf	___llmod@divisor+2,w
  4864  032B  0471               	iorwf	___llmod@divisor+1,w
  4865  032C  0470               	iorwf	___llmod@divisor,w
  4866  032D  1903               	skipnz
  4867  032E  2B62               	goto	l1610
  4868  032F  01F9               	clrf	___llmod@counter
  4869  0330  0AF9               	incf	___llmod@counter,f
  4870  0331                     l1600:	
  4871  0331  1BF3               	btfsc	___llmod@divisor+3,7
  4872  0332  2B3F               	goto	l1602
  4873  0333  3001               	movlw	1
  4874  0334                     u525:	
  4875  0334  35F0               	lslf	___llmod@divisor,f
  4876  0335  0DF1               	rlf	___llmod@divisor+1,f
  4877  0336  0DF2               	rlf	___llmod@divisor+2,f
  4878  0337  0DF3               	rlf	___llmod@divisor+3,f
  4879  0338  0B89               	decfsz	9,f
  4880  0339  2B34               	goto	u525
  4881  033A  3001               	movlw	1
  4882  033B  00F8               	movwf	??___llmod
  4883  033C  0878               	movf	??___llmod,w
  4884  033D  07F9               	addwf	___llmod@counter,f
  4885  033E  2B31               	goto	l1600
  4886  033F                     l1602:	
  4887  033F  0873               	movf	___llmod@divisor+3,w
  4888  0340  0277               	subwf	___llmod@dividend+3,w
  4889  0341  1D03               	skipz
  4890  0342  2B4D               	goto	u545
  4891  0343  0872               	movf	___llmod@divisor+2,w
  4892  0344  0276               	subwf	___llmod@dividend+2,w
  4893  0345  1D03               	skipz
  4894  0346  2B4D               	goto	u545
  4895  0347  0871               	movf	___llmod@divisor+1,w
  4896  0348  0275               	subwf	___llmod@dividend+1,w
  4897  0349  1D03               	skipz
  4898  034A  2B4D               	goto	u545
  4899  034B  0870               	movf	___llmod@divisor,w
  4900  034C  0274               	subwf	___llmod@dividend,w
  4901  034D                     u545:	
  4902  034D  1C03               	skipc
  4903  034E  2B57               	goto	l1606
  4904  034F  0870               	movf	___llmod@divisor,w
  4905  0350  02F4               	subwf	___llmod@dividend,f
  4906  0351  0871               	movf	___llmod@divisor+1,w
  4907  0352  3BF5               	subwfb	___llmod@dividend+1,f
  4908  0353  0872               	movf	___llmod@divisor+2,w
  4909  0354  3BF6               	subwfb	___llmod@dividend+2,f
  4910  0355  0873               	movf	___llmod@divisor+3,w
  4911  0356  3BF7               	subwfb	___llmod@dividend+3,f
  4912  0357                     l1606:	
  4913  0357  3001               	movlw	1
  4914  0358                     u555:	
  4915  0358  36F3               	lsrf	___llmod@divisor+3,f
  4916  0359  0CF2               	rrf	___llmod@divisor+2,f
  4917  035A  0CF1               	rrf	___llmod@divisor+1,f
  4918  035B  0CF0               	rrf	___llmod@divisor,f
  4919  035C  0B89               	decfsz	9,f
  4920  035D  2B58               	goto	u555
  4921  035E  3001               	movlw	1
  4922  035F  02F9               	subwf	___llmod@counter,f
  4923  0360  1D03               	btfss	3,2
  4924  0361  2B3F               	goto	l1602
  4925  0362                     l1610:	
  4926  0362  0877               	movf	___llmod@dividend+3,w
  4927  0363  00F3               	movwf	?___llmod+3
  4928  0364  0876               	movf	___llmod@dividend+2,w
  4929  0365  00F2               	movwf	?___llmod+2
  4930  0366  0875               	movf	___llmod@dividend+1,w
  4931  0367  00F1               	movwf	?___llmod+1
  4932  0368  0874               	movf	___llmod@dividend,w
  4933  0369  00F0               	movwf	?___llmod
  4934  036A  0008               	return
  4935  036B                     __end_of___llmod:	
  4936                           
  4937                           	psect	text20
  4938  02D7                     __ptext20:	
  4939 ;; *************** function ___lldiv *****************
  4940 ;; Defined at:
  4941 ;;		line 5 in file "C:\Program Files (x86)\Microchip\xc8\v2.05\pic\sources\c99\common\__lldiv.c"
  4942 ;; Parameters:    Size  Location     Type
  4943 ;;  divisor         4    0[COMMON] unsigned long 
  4944 ;;  dividend        4    4[COMMON] unsigned long 
  4945 ;; Auto vars:     Size  Location     Type
  4946 ;;  quotient        4    9[COMMON] unsigned long 
  4947 ;;  counter         1   13[COMMON] unsigned char 
  4948 ;; Return value:  Size  Location     Type
  4949 ;;                  4    0[COMMON] unsigned long 
  4950 ;; Registers used:
  4951 ;;		wreg, status,2, status,0
  4952 ;; Tracked objects:
  4953 ;;		On entry : 0/0
  4954 ;;		On exit  : 0/0
  4955 ;;		Unchanged: 0/0
  4956 ;; Data sizes:     COMMON   BANK0   BANK1   BANK2   BANK3   BANK4   BANK5   BANK6   BANK7   BANK8   BANK9  BANK10  BANK1
      +1  BANK12
  4957 ;;      Params:         8       0       0       0       0       0       0       0       0       0       0       0       
      +0       0
  4958 ;;      Locals:         5       0       0       0       0       0       0       0       0       0       0       0       
      +0       0
  4959 ;;      Temps:          1       0       0       0       0       0       0       0       0       0       0       0       
      +0       0
  4960 ;;      Totals:        14       0       0       0       0       0       0       0       0       0       0       0       
      +0       0
  4961 ;;Total ram usage:       14 bytes
  4962 ;; Hardware stack levels used:    1
  4963 ;; Hardware stack levels required when called:    4
  4964 ;; This function calls:
  4965 ;;		Nothing
  4966 ;; This function is called by:
  4967 ;;		_UART_PNbase
  4968 ;; This function uses a non-reentrant model
  4969 ;;
  4970                           
  4971                           
  4972                           ;psect for function ___lldiv
  4973  02D7                     ___lldiv:	
  4974                           
  4975                           ;incstack = 0
  4976                           ; Regs used in ___lldiv: [wreg+status,2+status,0]
  4977  02D7  3000               	movlw	0
  4978  02D8  00FC               	movwf	___lldiv@quotient+3
  4979  02D9  3000               	movlw	0
  4980  02DA  00FB               	movwf	___lldiv@quotient+2
  4981  02DB  3000               	movlw	0
  4982  02DC  00FA               	movwf	___lldiv@quotient+1
  4983  02DD  3000               	movlw	0
  4984  02DE  00F9               	movwf	___lldiv@quotient
  4985  02DF  0873               	movf	___lldiv@divisor+3,w
  4986  02E0  0472               	iorwf	___lldiv@divisor+2,w
  4987  02E1  0471               	iorwf	___lldiv@divisor+1,w
  4988  02E2  0470               	iorwf	___lldiv@divisor,w
  4989  02E3  1903               	skipnz
  4990  02E4  2B20               	goto	l1590
  4991  02E5  01FD               	clrf	___lldiv@counter
  4992  02E6  0AFD               	incf	___lldiv@counter,f
  4993  02E7                     l1576:	
  4994  02E7  1BF3               	btfsc	___lldiv@divisor+3,7
  4995  02E8  2AF5               	goto	l1578
  4996  02E9  3001               	movlw	1
  4997  02EA                     u455:	
  4998  02EA  35F0               	lslf	___lldiv@divisor,f
  4999  02EB  0DF1               	rlf	___lldiv@divisor+1,f
  5000  02EC  0DF2               	rlf	___lldiv@divisor+2,f
  5001  02ED  0DF3               	rlf	___lldiv@divisor+3,f
  5002  02EE  0B89               	decfsz	9,f
  5003  02EF  2AEA               	goto	u455
  5004  02F0  3001               	movlw	1
  5005  02F1  00F8               	movwf	??___lldiv
  5006  02F2  0878               	movf	??___lldiv,w
  5007  02F3  07FD               	addwf	___lldiv@counter,f
  5008  02F4  2AE7               	goto	l1576
  5009  02F5                     l1578:	
  5010  02F5  3001               	movlw	1
  5011  02F6                     u475:	
  5012  02F6  35F9               	lslf	___lldiv@quotient,f
  5013  02F7  0DFA               	rlf	___lldiv@quotient+1,f
  5014  02F8  0DFB               	rlf	___lldiv@quotient+2,f
  5015  02F9  0DFC               	rlf	___lldiv@quotient+3,f
  5016  02FA  0B89               	decfsz	9,f
  5017  02FB  2AF6               	goto	u475
  5018  02FC  0873               	movf	___lldiv@divisor+3,w
  5019  02FD  0277               	subwf	___lldiv@dividend+3,w
  5020  02FE  1D03               	skipz
  5021  02FF  2B0A               	goto	u485
  5022  0300  0872               	movf	___lldiv@divisor+2,w
  5023  0301  0276               	subwf	___lldiv@dividend+2,w
  5024  0302  1D03               	skipz
  5025  0303  2B0A               	goto	u485
  5026  0304  0871               	movf	___lldiv@divisor+1,w
  5027  0305  0275               	subwf	___lldiv@dividend+1,w
  5028  0306  1D03               	skipz
  5029  0307  2B0A               	goto	u485
  5030  0308  0870               	movf	___lldiv@divisor,w
  5031  0309  0274               	subwf	___lldiv@dividend,w
  5032  030A                     u485:	
  5033  030A  1C03               	skipc
  5034  030B  2B15               	goto	l1586
  5035  030C  0870               	movf	___lldiv@divisor,w
  5036  030D  02F4               	subwf	___lldiv@dividend,f
  5037  030E  0871               	movf	___lldiv@divisor+1,w
  5038  030F  3BF5               	subwfb	___lldiv@dividend+1,f
  5039  0310  0872               	movf	___lldiv@divisor+2,w
  5040  0311  3BF6               	subwfb	___lldiv@dividend+2,f
  5041  0312  0873               	movf	___lldiv@divisor+3,w
  5042  0313  3BF7               	subwfb	___lldiv@dividend+3,f
  5043  0314  1479               	bsf	___lldiv@quotient,0
  5044  0315                     l1586:	
  5045  0315  3001               	movlw	1
  5046  0316                     u495:	
  5047  0316  36F3               	lsrf	___lldiv@divisor+3,f
  5048  0317  0CF2               	rrf	___lldiv@divisor+2,f
  5049  0318  0CF1               	rrf	___lldiv@divisor+1,f
  5050  0319  0CF0               	rrf	___lldiv@divisor,f
  5051  031A  0B89               	decfsz	9,f
  5052  031B  2B16               	goto	u495
  5053  031C  3001               	movlw	1
  5054  031D  02FD               	subwf	___lldiv@counter,f
  5055  031E  1D03               	btfss	3,2
  5056  031F  2AF5               	goto	l1578
  5057  0320                     l1590:	
  5058  0320  087C               	movf	___lldiv@quotient+3,w
  5059  0321  00F3               	movwf	?___lldiv+3
  5060  0322  087B               	movf	___lldiv@quotient+2,w
  5061  0323  00F2               	movwf	?___lldiv+2
  5062  0324  087A               	movf	___lldiv@quotient+1,w
  5063  0325  00F1               	movwf	?___lldiv+1
  5064  0326  0879               	movf	___lldiv@quotient,w
  5065  0327  00F0               	movwf	?___lldiv
  5066  0328  0008               	return
  5067  0329                     __end_of___lldiv:	
  5068                           
  5069                           	psect	text21
  5070  03FF                     __ptext21:	
  5071 ;; *************** function _NRF_Write_Register *****************
  5072 ;; Defined at:
  5073 ;;		line 46 in file "01 - SRC/03_NRF24L01/NRF24L01.c"
  5074 ;; Parameters:    Size  Location     Type
  5075 ;;  Register        1    wreg     unsigned char 
  5076 ;;  Bytes           1    5[COMMON] PTR unsigned char 
  5077 ;;		 -> NRF_REG_CONFIG(1), 
  5078 ;;  Length          1    6[COMMON] unsigned char 
  5079 ;; Auto vars:     Size  Location     Type
  5080 ;;  Register        1    9[COMMON] unsigned char 
  5081 ;;  Status          1   10[COMMON] unsigned char 
  5082 ;; Return value:  Size  Location     Type
  5083 ;;                  1    wreg      unsigned char 
  5084 ;; Registers used:
  5085 ;;		wreg, fsr1l, fsr1h, status,2, status,0, pclath, cstack
  5086 ;; Tracked objects:
  5087 ;;		On entry : 0/0
  5088 ;;		On exit  : 0/0
  5089 ;;		Unchanged: 0/0
  5090 ;; Data sizes:     COMMON   BANK0   BANK1   BANK2   BANK3   BANK4   BANK5   BANK6   BANK7   BANK8   BANK9  BANK10  BANK1
      +1  BANK12
  5091 ;;      Params:         2       0       0       0       0       0       0       0       0       0       0       0       
      +0       0
  5092 ;;      Locals:         2       0       0       0       0       0       0       0       0       0       0       0       
      +0       0
  5093 ;;      Temps:          2       0       0       0       0       0       0       0       0       0       0       0       
      +0       0
  5094 ;;      Totals:         6       0       0       0       0       0       0       0       0       0       0       0       
      +0       0
  5095 ;;Total ram usage:        6 bytes
  5096 ;; Hardware stack levels used:    1
  5097 ;; Hardware stack levels required when called:    5
  5098 ;; This function calls:
  5099 ;;		Absolute function
  5100 ;;		_SoftSPI_Exchange
  5101 ;; This function is called by:
  5102 ;;		_NRF_SET_PRX
  5103 ;; This function uses a non-reentrant model
  5104 ;;
  5105                           
  5106                           
  5107                           ;psect for function _NRF_Write_Register
  5108  03FF                     _NRF_Write_Register:	
  5109                           
  5110                           ;incstack = 0
  5111                           ; Regs used in _NRF_Write_Register: [wreg+fsr1l+fsr1h+status,2+status,0+pclath+cstack]
  5112                           ;NRF_Write_Register@Register stored from wreg
  5113  03FF  00F9               	movwf	NRF_Write_Register@Register
  5114  0400  0022               	movlb	2	; select bank2
  5115  0401  110C               	bcf	12,2	;volatile
  5116  0402  0879               	movf	NRF_Write_Register@Register,w
  5117  0403  3820               	iorlw	32
  5118  0404  00F7               	movwf	??_NRF_Write_Register
  5119  0405  0877               	movf	??_NRF_Write_Register,w
  5120  0406  00F0               	movwf	SoftSPI_Exchange@TxByte
  5121  0407  0020               	movlb	0	; select bank0
  5122  0408  085F               	movf	_p_NRF_SPI_Exchange+1,w
  5123  0409  008A               	movwf	10
  5124  040A  085E               	movf	_p_NRF_SPI_Exchange,w
  5125  040B  000A               	callw
  5126  040C  3183               	pagesel	$
  5127  040D  00F8               	movwf	??_NRF_Write_Register+1
  5128  040E  0878               	movf	??_NRF_Write_Register+1,w
  5129  040F  00FA               	movwf	NRF_Write_Register@Status
  5130  0410                     l1646:	
  5131  0410  3001               	movlw	1
  5132  0411  02F6               	subwf	NRF_Write_Register@Length,f
  5133  0412  0A76               	incf	NRF_Write_Register@Length,w
  5134  0413  1903               	btfsc	3,2
  5135  0414  2C27               	goto	l89
  5136  0415  0875               	movf	NRF_Write_Register@Bytes,w
  5137  0416  0086               	movwf	6
  5138  0417  0187               	clrf	7
  5139  0418  0801               	movf	1,w
  5140  0419  00F7               	movwf	??_NRF_Write_Register
  5141  041A  0877               	movf	??_NRF_Write_Register,w
  5142  041B  00F0               	movwf	SoftSPI_Exchange@TxByte
  5143  041C  0020               	movlb	0	; select bank0
  5144  041D  085F               	movf	_p_NRF_SPI_Exchange+1,w
  5145  041E  008A               	movwf	10
  5146  041F  085E               	movf	_p_NRF_SPI_Exchange,w
  5147  0420  000A               	callw
  5148  0421  3183               	pagesel	$
  5149  0422  3001               	movlw	1
  5150  0423  00F7               	movwf	??_NRF_Write_Register
  5151  0424  0877               	movf	??_NRF_Write_Register,w
  5152  0425  07F5               	addwf	NRF_Write_Register@Bytes,f
  5153  0426  2C10               	goto	l1646
  5154  0427                     l89:	
  5155  0427  0022               	movlb	2	; select bank2
  5156  0428  150C               	bsf	12,2	;volatile
  5157  0429  087A               	movf	NRF_Write_Register@Status,w
  5158  042A  0008               	return
  5159  042B                     __end_of_NRF_Write_Register:	
  5160                           
  5161                           	psect	text22
  5162  03D1                     __ptext22:	
  5163 ;; *************** function _NRF_Read_Register *****************
  5164 ;; Defined at:
  5165 ;;		line 59 in file "01 - SRC/03_NRF24L01/NRF24L01.c"
  5166 ;; Parameters:    Size  Location     Type
  5167 ;;  Register        1    wreg     unsigned char 
  5168 ;;  Bytes           1    5[COMMON] PTR unsigned char 
  5169 ;;		 -> NRF_ADDR_PIPE_0(5), 
  5170 ;;  Length          1    6[COMMON] unsigned char 
  5171 ;; Auto vars:     Size  Location     Type
  5172 ;;  Register        1    9[COMMON] unsigned char 
  5173 ;;  Status          1   10[COMMON] unsigned char 
  5174 ;; Return value:  Size  Location     Type
  5175 ;;                  1    wreg      unsigned char 
  5176 ;; Registers used:
  5177 ;;		wreg, fsr1l, fsr1h, status,2, status,0, pclath, cstack
  5178 ;; Tracked objects:
  5179 ;;		On entry : 0/0
  5180 ;;		On exit  : 0/0
  5181 ;;		Unchanged: 0/0
  5182 ;; Data sizes:     COMMON   BANK0   BANK1   BANK2   BANK3   BANK4   BANK5   BANK6   BANK7   BANK8   BANK9  BANK10  BANK1
      +1  BANK12
  5183 ;;      Params:         2       0       0       0       0       0       0       0       0       0       0       0       
      +0       0
  5184 ;;      Locals:         2       0       0       0       0       0       0       0       0       0       0       0       
      +0       0
  5185 ;;      Temps:          2       0       0       0       0       0       0       0       0       0       0       0       
      +0       0
  5186 ;;      Totals:         6       0       0       0       0       0       0       0       0       0       0       0       
      +0       0
  5187 ;;Total ram usage:        6 bytes
  5188 ;; Hardware stack levels used:    1
  5189 ;; Hardware stack levels required when called:    5
  5190 ;; This function calls:
  5191 ;;		Absolute function
  5192 ;;		_SoftSPI_Exchange
  5193 ;; This function is called by:
  5194 ;;		_NRF_SET_PRX
  5195 ;; This function uses a non-reentrant model
  5196 ;;
  5197                           
  5198                           
  5199                           ;psect for function _NRF_Read_Register
  5200  03D1                     _NRF_Read_Register:	
  5201                           
  5202                           ;incstack = 0
  5203                           ; Regs used in _NRF_Read_Register: [wreg+fsr1l+fsr1h+status,2+status,0+pclath+cstack]
  5204                           ;NRF_Read_Register@Register stored from wreg
  5205  03D1  00F9               	movwf	NRF_Read_Register@Register
  5206  03D2  0022               	movlb	2	; select bank2
  5207  03D3  110C               	bcf	12,2	;volatile
  5208  03D4  0879               	movf	NRF_Read_Register@Register,w
  5209  03D5  00F7               	movwf	??_NRF_Read_Register
  5210  03D6  0877               	movf	??_NRF_Read_Register,w
  5211  03D7  00F0               	movwf	SoftSPI_Exchange@TxByte
  5212  03D8  0020               	movlb	0	; select bank0
  5213  03D9  085F               	movf	_p_NRF_SPI_Exchange+1,w
  5214  03DA  008A               	movwf	10
  5215  03DB  085E               	movf	_p_NRF_SPI_Exchange,w
  5216  03DC  000A               	callw
  5217  03DD  3183               	pagesel	$
  5218  03DE  00F8               	movwf	??_NRF_Read_Register+1
  5219  03DF  0878               	movf	??_NRF_Read_Register+1,w
  5220  03E0  00FA               	movwf	NRF_Read_Register@Status
  5221  03E1                     l1662:	
  5222  03E1  3001               	movlw	1
  5223  03E2  02F6               	subwf	NRF_Read_Register@Length,f
  5224  03E3  0A76               	incf	NRF_Read_Register@Length,w
  5225  03E4  1903               	btfsc	3,2
  5226  03E5  2BFB               	goto	l95
  5227  03E6  30FF               	movlw	255
  5228  03E7  00F7               	movwf	??_NRF_Read_Register
  5229  03E8  0877               	movf	??_NRF_Read_Register,w
  5230  03E9  00F0               	movwf	SoftSPI_Exchange@TxByte
  5231  03EA  0020               	movlb	0	; select bank0
  5232  03EB  085F               	movf	_p_NRF_SPI_Exchange+1,w
  5233  03EC  008A               	movwf	10
  5234  03ED  085E               	movf	_p_NRF_SPI_Exchange,w
  5235  03EE  000A               	callw
  5236  03EF  3183               	pagesel	$
  5237  03F0  00F8               	movwf	??_NRF_Read_Register+1
  5238  03F1  0875               	movf	NRF_Read_Register@Bytes,w
  5239  03F2  0086               	movwf	6
  5240  03F3  0187               	clrf	7
  5241  03F4  0878               	movf	??_NRF_Read_Register+1,w
  5242  03F5  0081               	movwf	1
  5243  03F6  3001               	movlw	1
  5244  03F7  00F7               	movwf	??_NRF_Read_Register
  5245  03F8  0877               	movf	??_NRF_Read_Register,w
  5246  03F9  07F5               	addwf	NRF_Read_Register@Bytes,f
  5247  03FA  2BE1               	goto	l1662
  5248  03FB                     l95:	
  5249  03FB  0022               	movlb	2	; select bank2
  5250  03FC  150C               	bsf	12,2	;volatile
  5251  03FD  087A               	movf	NRF_Read_Register@Status,w
  5252  03FE  0008               	return
  5253  03FF                     __end_of_NRF_Read_Register:	
  5254                           
  5255                           	psect	text23
  5256  036B                     __ptext23:	
  5257 ;; *************** function _SoftSPI_Exchange *****************
  5258 ;; Defined at:
  5259 ;;		line 3 in file "01 - SRC/02_Soft_SPI/Soft_SPI.c"
  5260 ;; Parameters:    Size  Location     Type
  5261 ;;  TxByte          1    0[COMMON] unsigned char 
  5262 ;; Auto vars:     Size  Location     Type
  5263 ;;  i               1    4[COMMON] unsigned char 
  5264 ;;  RxByte          1    3[COMMON] unsigned char 
  5265 ;; Return value:  Size  Location     Type
  5266 ;;                  1    wreg      unsigned char 
  5267 ;; Registers used:
  5268 ;;		wreg, status,2, status,0
  5269 ;; Tracked objects:
  5270 ;;		On entry : 0/0
  5271 ;;		On exit  : 0/0
  5272 ;;		Unchanged: 0/0
  5273 ;; Data sizes:     COMMON   BANK0   BANK1   BANK2   BANK3   BANK4   BANK5   BANK6   BANK7   BANK8   BANK9  BANK10  BANK1
      +1  BANK12
  5274 ;;      Params:         1       0       0       0       0       0       0       0       0       0       0       0       
      +0       0
  5275 ;;      Locals:         2       0       0       0       0       0       0       0       0       0       0       0       
      +0       0
  5276 ;;      Temps:          2       0       0       0       0       0       0       0       0       0       0       0       
      +0       0
  5277 ;;      Totals:         5       0       0       0       0       0       0       0       0       0       0       0       
      +0       0
  5278 ;;Total ram usage:        5 bytes
  5279 ;; Hardware stack levels used:    1
  5280 ;; Hardware stack levels required when called:    4
  5281 ;; This function calls:
  5282 ;;		Nothing
  5283 ;; This function is called by:
  5284 ;;		_NRF24L01_Init
  5285 ;;		_NRF_Write_Register
  5286 ;;		_NRF_Read_Register
  5287 ;;		_main
  5288 ;; This function uses a non-reentrant model
  5289 ;;
  5290                           
  5291                           
  5292                           ;psect for function _SoftSPI_Exchange
  5293  036B                     _SoftSPI_Exchange:	
  5294                           
  5295                           ;incstack = 0
  5296                           ; Regs used in _SoftSPI_Exchange: [wreg+status,2+status,0]
  5297  036B  01F3               	clrf	SoftSPI_Exchange@RxByte
  5298  036C  3007               	movlw	7
  5299  036D  00F1               	movwf	??_SoftSPI_Exchange
  5300  036E  0871               	movf	??_SoftSPI_Exchange,w
  5301  036F  00F4               	movwf	SoftSPI_Exchange@i
  5302  0370                     l1546:	
  5303  0370  0870               	movf	SoftSPI_Exchange@TxByte,w
  5304  0371  00F1               	movwf	??_SoftSPI_Exchange
  5305  0372  0A74               	incf	SoftSPI_Exchange@i,w
  5306  0373  2B75               	goto	u414
  5307  0374                     u415:	
  5308  0374  36F1               	lsrf	??_SoftSPI_Exchange,f
  5309  0375                     u414:	
  5310  0375  0B89               	decfsz	9,f
  5311  0376  2B74               	goto	u415
  5312  0377  3001               	movlw	1
  5313  0378  0571               	andwf	??_SoftSPI_Exchange,w
  5314  0379  00F2               	movwf	??_SoftSPI_Exchange+1
  5315  037A  0022               	movlb	2	; select bank2
  5316  037B  080E               	movf	14,w	;volatile
  5317  037C  0672               	xorwf	??_SoftSPI_Exchange+1,w
  5318  037D  39FE               	andlw	-2
  5319  037E  0672               	xorwf	??_SoftSPI_Exchange+1,w
  5320  037F  008E               	movwf	14	;volatile
  5321  0380  3021               	movlw	33
  5322  0381                     u777:	
  5323  0381  0B89               	decfsz	9,f
  5324  0382  2B81               	goto	u777
  5325  0383  0000               	nop
  5326  0384  0022               	movlb	2	; select bank2
  5327  0385  150E               	bsf	14,2	;volatile
  5328  0386  3021               	movlw	33
  5329  0387                     u787:	
  5330  0387  0B89               	decfsz	9,f
  5331  0388  2B87               	goto	u787
  5332  0389  0000               	nop
  5333  038A  0020               	movlb	0	; select bank0
  5334  038B  0C0E               	rrf	14,w	;volatile
  5335  038C  3901               	andlw	1
  5336  038D  00F1               	movwf	??_SoftSPI_Exchange
  5337  038E  0A74               	incf	SoftSPI_Exchange@i,w
  5338  038F  2B91               	goto	u424
  5339  0390                     u425:	
  5340  0390  35F1               	lslf	??_SoftSPI_Exchange,f
  5341  0391                     u424:	
  5342  0391  0B89               	decfsz	9,f
  5343  0392  2B90               	goto	u425
  5344  0393  0871               	movf	??_SoftSPI_Exchange,w
  5345  0394  00F2               	movwf	??_SoftSPI_Exchange+1
  5346  0395  0872               	movf	??_SoftSPI_Exchange+1,w
  5347  0396  04F3               	iorwf	SoftSPI_Exchange@RxByte,f
  5348  0397  0022               	movlb	2	; select bank2
  5349  0398  110E               	bcf	14,2	;volatile
  5350  0399  3001               	movlw	1
  5351  039A  02F4               	subwf	SoftSPI_Exchange@i,f
  5352  039B  0874               	movf	SoftSPI_Exchange@i,w
  5353  039C  1D03               	btfss	3,2
  5354  039D  2B70               	goto	l1546
  5355  039E  0873               	movf	SoftSPI_Exchange@RxByte,w
  5356  039F  0008               	return
  5357  03A0                     __end_of_SoftSPI_Exchange:	
  5358                           
  5359                           	psect	text24
  5360  046D                     __ptext24:	
  5361 ;; *************** function _NRF24L01_Init *****************
  5362 ;; Defined at:
  5363 ;;		line 9 in file "01 - SRC/03_NRF24L01/NRF24L01.c"
  5364 ;; Parameters:    Size  Location     Type
  5365 ;;		None
  5366 ;; Auto vars:     Size  Location     Type
  5367 ;;		None
  5368 ;; Return value:  Size  Location     Type
  5369 ;;                  1    wreg      void 
  5370 ;; Registers used:
  5371 ;;		wreg, status,2, status,0, pclath, cstack
  5372 ;; Tracked objects:
  5373 ;;		On entry : 0/0
  5374 ;;		On exit  : 0/0
  5375 ;;		Unchanged: 0/0
  5376 ;; Data sizes:     COMMON   BANK0   BANK1   BANK2   BANK3   BANK4   BANK5   BANK6   BANK7   BANK8   BANK9  BANK10  BANK1
      +1  BANK12
  5377 ;;      Params:         0       0       0       0       0       0       0       0       0       0       0       0       
      +0       0
  5378 ;;      Locals:         0       0       0       0       0       0       0       0       0       0       0       0       
      +0       0
  5379 ;;      Temps:          1       0       0       0       0       0       0       0       0       0       0       0       
      +0       0
  5380 ;;      Totals:         1       0       0       0       0       0       0       0       0       0       0       0       
      +0       0
  5381 ;;Total ram usage:        1 bytes
  5382 ;; Hardware stack levels used:    1
  5383 ;; Hardware stack levels required when called:    5
  5384 ;; This function calls:
  5385 ;;		_Set_SPI_Handler
  5386 ;; This function is called by:
  5387 ;;		_main
  5388 ;; This function uses a non-reentrant model
  5389 ;;
  5390                           
  5391                           
  5392                           ;psect for function _NRF24L01_Init
  5393  046D                     _NRF24L01_Init:	
  5394                           
  5395                           ;incstack = 0
  5396                           ; Regs used in _NRF24L01_Init: [wreg+status,2+status,0+pclath+cstack]
  5397  046D  306B               	movlw	low _SoftSPI_Exchange
  5398  046E  00F0               	movwf	Set_SPI_Handler@SPI_Handler
  5399  046F  3003               	movlw	high _SoftSPI_Exchange
  5400  0470  00F1               	movwf	Set_SPI_Handler@SPI_Handler+1
  5401  0471  3185  2583         	fcall	_Set_SPI_Handler
  5402  0473  0022               	movlb	2	; select bank2
  5403  0474  120C               	bcf	12,4	;volatile
  5404  0475  150C               	bsf	12,2	;volatile
  5405  0476  0020               	movlb	0	; select bank0
  5406  0477  01E1               	clrf	_NRF_REG_STATUS
  5407  0478  01E7               	clrf	_NRF_REG_CONFIG
  5408  0479  01E2               	clrf	_NRF_ADDR_PIPE_0
  5409  047A  0AE2               	incf	_NRF_ADDR_PIPE_0,f
  5410  047B  3002               	movlw	2
  5411  047C  00F2               	movwf	??_NRF24L01_Init
  5412  047D  0872               	movf	??_NRF24L01_Init,w
  5413  047E  00E3               	movwf	_NRF_ADDR_PIPE_0+1
  5414  047F  3003               	movlw	3
  5415  0480  00F2               	movwf	??_NRF24L01_Init
  5416  0481  0872               	movf	??_NRF24L01_Init,w
  5417  0482  00E4               	movwf	_NRF_ADDR_PIPE_0+2
  5418  0483  3004               	movlw	4
  5419  0484  00F2               	movwf	??_NRF24L01_Init
  5420  0485  0872               	movf	??_NRF24L01_Init,w
  5421  0486  00E5               	movwf	_NRF_ADDR_PIPE_0+3
  5422  0487  3005               	movlw	5
  5423  0488  00F2               	movwf	??_NRF24L01_Init
  5424  0489  0872               	movf	??_NRF24L01_Init,w
  5425  048A  00E6               	movwf	_NRF_ADDR_PIPE_0+4
  5426  048B  0008               	return
  5427  048C                     __end_of_NRF24L01_Init:	
  5428                           
  5429                           	psect	text25
  5430  0583                     __ptext25:	
  5431 ;; *************** function _Set_SPI_Handler *****************
  5432 ;; Defined at:
  5433 ;;		line 77 in file "01 - SRC/03_NRF24L01/NRF24L01.c"
  5434 ;; Parameters:    Size  Location     Type
  5435 ;;  SPI_Handler     2    0[COMMON] PTR FTN(unsigned char ,)
  5436 ;;		 -> SoftSPI_Exchange(1), 
  5437 ;; Auto vars:     Size  Location     Type
  5438 ;;		None
  5439 ;; Return value:  Size  Location     Type
  5440 ;;                  1    wreg      void 
  5441 ;; Registers used:
  5442 ;;		wreg
  5443 ;; Tracked objects:
  5444 ;;		On entry : 0/0
  5445 ;;		On exit  : 0/0
  5446 ;;		Unchanged: 0/0
  5447 ;; Data sizes:     COMMON   BANK0   BANK1   BANK2   BANK3   BANK4   BANK5   BANK6   BANK7   BANK8   BANK9  BANK10  BANK1
      +1  BANK12
  5448 ;;      Params:         2       0       0       0       0       0       0       0       0       0       0       0       
      +0       0
  5449 ;;      Locals:         0       0       0       0       0       0       0       0       0       0       0       0       
      +0       0
  5450 ;;      Temps:          0       0       0       0       0       0       0       0       0       0       0       0       
      +0       0
  5451 ;;      Totals:         2       0       0       0       0       0       0       0       0       0       0       0       
      +0       0
  5452 ;;Total ram usage:        2 bytes
  5453 ;; Hardware stack levels used:    1
  5454 ;; Hardware stack levels required when called:    4
  5455 ;; This function calls:
  5456 ;;		Nothing
  5457 ;; This function is called by:
  5458 ;;		_NRF24L01_Init
  5459 ;; This function uses a non-reentrant model
  5460 ;;
  5461                           
  5462                           
  5463                           ;psect for function _Set_SPI_Handler
  5464  0583                     _Set_SPI_Handler:	
  5465                           
  5466                           ;incstack = 0
  5467                           ; Regs used in _Set_SPI_Handler: [wreg]
  5468  0583  0871               	movf	Set_SPI_Handler@SPI_Handler+1,w
  5469  0584  0020               	movlb	0	; select bank0
  5470  0585  00DF               	movwf	_p_NRF_SPI_Exchange+1
  5471  0586  0870               	movf	Set_SPI_Handler@SPI_Handler,w
  5472  0587  00DE               	movwf	_p_NRF_SPI_Exchange
  5473  0588  0008               	return
  5474  0589                     __end_of_Set_SPI_Handler:	
  5475                           
  5476                           	psect	text26
  5477  0558                     __ptext26:	
  5478 ;; *************** function _AppInit *****************
  5479 ;; Defined at:
  5480 ;;		line 11 in file "01 - SRC/01_Appli/Application.c"
  5481 ;; Parameters:    Size  Location     Type
  5482 ;;		None
  5483 ;; Auto vars:     Size  Location     Type
  5484 ;;		None
  5485 ;; Return value:  Size  Location     Type
  5486 ;;                  1    wreg      void 
  5487 ;; Registers used:
  5488 ;;		wreg, fsr0l, fsr0h, status,2, status,0, pclath, cstack
  5489 ;; Tracked objects:
  5490 ;;		On entry : 0/0
  5491 ;;		On exit  : 0/0
  5492 ;;		Unchanged: 0/0
  5493 ;; Data sizes:     COMMON   BANK0   BANK1   BANK2   BANK3   BANK4   BANK5   BANK6   BANK7   BANK8   BANK9  BANK10  BANK1
      +1  BANK12
  5494 ;;      Params:         0       0       0       0       0       0       0       0       0       0       0       0       
      +0       0
  5495 ;;      Locals:         0       0       0       0       0       0       0       0       0       0       0       0       
      +0       0
  5496 ;;      Temps:          0       0       0       0       0       0       0       0       0       0       0       0       
      +0       0
  5497 ;;      Totals:         0       0       0       0       0       0       0       0       0       0       0       0       
      +0       0
  5498 ;;Total ram usage:        0 bytes
  5499 ;; Hardware stack levels used:    1
  5500 ;; Hardware stack levels required when called:    6
  5501 ;; This function calls:
  5502 ;;		_PrintUART
  5503 ;; This function is called by:
  5504 ;;		_main
  5505 ;; This function uses a non-reentrant model
  5506 ;;
  5507                           
  5508                           
  5509                           ;psect for function _AppInit
  5510  0558                     _AppInit:	
  5511                           
  5512                           ;incstack = 0
  5513                           ; Regs used in _AppInit: [wreg-fsr0h+status,2+status,0+pclath+cstack]
  5514  0558  300C               	movlw	low (STR_2| (0+32768))
  5515  0559  00F1               	movwf	PrintUART@string
  5516  055A  3085               	movlw	high (STR_2| (0+32768))
  5517  055B  00F2               	movwf	PrintUART@string+1
  5518  055C  3184  244C         	fcall	_PrintUART
  5519  055E  0008               	return
  5520  055F                     __end_of_AppInit:	
  5521                           
  5522                           	psect	text27
  5523  044C                     __ptext27:	
  5524 ;; *************** function _PrintUART *****************
  5525 ;; Defined at:
  5526 ;;		line 16 in file "01 - SRC/01_Appli/Application.c"
  5527 ;; Parameters:    Size  Location     Type
  5528 ;;  string          2    1[COMMON] PTR unsigned char 
  5529 ;;		 -> STR_10(3), STR_9(2), STR_8(2), STR_7(2), 
  5530 ;;		 -> STR_6(2), STR_5(18), STR_4(3), STR_3(24), 
  5531 ;;		 -> STR_2(17), 
  5532 ;; Auto vars:     Size  Location     Type
  5533 ;;  i               2    4[COMMON] unsigned short 
  5534 ;; Return value:  Size  Location     Type
  5535 ;;                  1    wreg      void 
  5536 ;; Registers used:
  5537 ;;		wreg, fsr0l, fsr0h, status,2, status,0, pclath, cstack
  5538 ;; Tracked objects:
  5539 ;;		On entry : 0/0
  5540 ;;		On exit  : 0/0
  5541 ;;		Unchanged: 0/0
  5542 ;; Data sizes:     COMMON   BANK0   BANK1   BANK2   BANK3   BANK4   BANK5   BANK6   BANK7   BANK8   BANK9  BANK10  BANK1
      +1  BANK12
  5543 ;;      Params:         2       0       0       0       0       0       0       0       0       0       0       0       
      +0       0
  5544 ;;      Locals:         2       0       0       0       0       0       0       0       0       0       0       0       
      +0       0
  5545 ;;      Temps:          1       0       0       0       0       0       0       0       0       0       0       0       
      +0       0
  5546 ;;      Totals:         5       0       0       0       0       0       0       0       0       0       0       0       
      +0       0
  5547 ;;Total ram usage:        5 bytes
  5548 ;; Hardware stack levels used:    1
  5549 ;; Hardware stack levels required when called:    5
  5550 ;; This function calls:
  5551 ;;		_EUSART_Write
  5552 ;; This function is called by:
  5553 ;;		_AppInit
  5554 ;;		_UART_PNbase
  5555 ;;		_NRF_SET_PRX
  5556 ;; This function uses a non-reentrant model
  5557 ;;
  5558                           
  5559                           
  5560                           ;psect for function _PrintUART
  5561  044C                     _PrintUART:	
  5562                           
  5563                           ;incstack = 0
  5564                           ; Regs used in _PrintUART: [wreg-fsr0h+status,2+status,0+pclath+cstack]
  5565  044C  01F4               	clrf	PrintUART@i
  5566  044D  01F5               	clrf	PrintUART@i+1
  5567  044E                     l1534:	
  5568  044E  0871               	movf	PrintUART@string,w
  5569  044F  0774               	addwf	PrintUART@i,w
  5570  0450  0084               	movwf	4
  5571  0451  0872               	movf	PrintUART@string+1,w
  5572  0452  3D75               	addwfc	PrintUART@i+1,w
  5573  0453  0085               	movwf	5
  5574  0454  0012               	moviw fsr0++
  5575  0455  1903               	btfsc	3,2
  5576  0456  0008               	return
  5577  0457  3000               	movlw	0
  5578  0458  0275               	subwf	PrintUART@i+1,w
  5579  0459  30FF               	movlw	255
  5580  045A  1903               	skipnz
  5581  045B  0274               	subwf	PrintUART@i,w
  5582  045C  1803               	btfsc	3,0
  5583  045D  0008               	return
  5584  045E  0871               	movf	PrintUART@string,w
  5585  045F  0774               	addwf	PrintUART@i,w
  5586  0460  0084               	movwf	4
  5587  0461  0872               	movf	PrintUART@string+1,w
  5588  0462  3D75               	addwfc	PrintUART@i+1,w
  5589  0463  0085               	movwf	5
  5590  0464  0800               	movf	0,w	;code access
  5591  0465  3185  2549  3184   	fcall	_EUSART_Write
  5592  0468  3001               	movlw	1
  5593  0469  07F4               	addwf	PrintUART@i,f
  5594  046A  3000               	movlw	0
  5595  046B  3DF5               	addwfc	PrintUART@i+1,f
  5596  046C  2C4E               	goto	l1534
  5597  046D                     __end_of_PrintUART:	
  5598                           
  5599                           	psect	text28
  5600  0549                     __ptext28:	
  5601 ;; *************** function _EUSART_Write *****************
  5602 ;; Defined at:
  5603 ;;		line 132 in file "01 - SRC/05_MCC_16F1575/eusart.c"
  5604 ;; Parameters:    Size  Location     Type
  5605 ;;  txData          1    wreg     unsigned char 
  5606 ;; Auto vars:     Size  Location     Type
  5607 ;;  txData          1    0[COMMON] unsigned char 
  5608 ;; Return value:  Size  Location     Type
  5609 ;;                  1    wreg      void 
  5610 ;; Registers used:
  5611 ;;		wreg
  5612 ;; Tracked objects:
  5613 ;;		On entry : 0/0
  5614 ;;		On exit  : 0/0
  5615 ;;		Unchanged: 0/0
  5616 ;; Data sizes:     COMMON   BANK0   BANK1   BANK2   BANK3   BANK4   BANK5   BANK6   BANK7   BANK8   BANK9  BANK10  BANK1
      +1  BANK12
  5617 ;;      Params:         0       0       0       0       0       0       0       0       0       0       0       0       
      +0       0
  5618 ;;      Locals:         1       0       0       0       0       0       0       0       0       0       0       0       
      +0       0
  5619 ;;      Temps:          0       0       0       0       0       0       0       0       0       0       0       0       
      +0       0
  5620 ;;      Totals:         1       0       0       0       0       0       0       0       0       0       0       0       
      +0       0
  5621 ;;Total ram usage:        1 bytes
  5622 ;; Hardware stack levels used:    1
  5623 ;; Hardware stack levels required when called:    4
  5624 ;; This function calls:
  5625 ;;		Nothing
  5626 ;; This function is called by:
  5627 ;;		_PrintUART
  5628 ;;		_UART_PNbase
  5629 ;;		_UART_crlf
  5630 ;; This function uses a non-reentrant model
  5631 ;;
  5632                           
  5633                           
  5634                           ;psect for function _EUSART_Write
  5635  0549                     _EUSART_Write:	
  5636                           
  5637                           ;incstack = 0
  5638                           ; Regs used in _EUSART_Write: [wreg]
  5639                           ;EUSART_Write@txData stored from wreg
  5640  0549  00F0               	movwf	EUSART_Write@txData
  5641  054A                     l207:	
  5642  054A  0020               	movlb	0	; select bank0
  5643  054B  1E11               	btfss	17,4	;volatile
  5644  054C  2D4A               	goto	l207
  5645  054D  0870               	movf	EUSART_Write@txData,w
  5646  054E  0023               	movlb	3	; select bank3
  5647  054F  009A               	movwf	26	;volatile
  5648  0550  0008               	return
  5649  0551                     __end_of_EUSART_Write:	
  5650                           
  5651                           	psect	intentry
  5652  0004                     __pintentry:	
  5653 ;; *************** function _INTERRUPT_InterruptManager *****************
  5654 ;; Defined at:
  5655 ;;		line 52 in file "01 - SRC/05_MCC_16F1575/interrupt_manager.c"
  5656 ;; Parameters:    Size  Location     Type
  5657 ;;		None
  5658 ;; Auto vars:     Size  Location     Type
  5659 ;;		None
  5660 ;; Return value:  Size  Location     Type
  5661 ;;                  1    wreg      void 
  5662 ;; Registers used:
  5663 ;;		wreg, status,2, status,0, pclath, cstack
  5664 ;; Tracked objects:
  5665 ;;		On entry : 0/0
  5666 ;;		On exit  : 0/0
  5667 ;;		Unchanged: 0/0
  5668 ;; Data sizes:     COMMON   BANK0   BANK1   BANK2   BANK3   BANK4   BANK5   BANK6   BANK7   BANK8   BANK9  BANK10  BANK1
      +1  BANK12
  5669 ;;      Params:         0       0       0       0       0       0       0       0       0       0       0       0       
      +0       0
  5670 ;;      Locals:         0       0       0       0       0       0       0       0       0       0       0       0       
      +0       0
  5671 ;;      Temps:          0       0       0       0       0       0       0       0       0       0       0       0       
      +0       0
  5672 ;;      Totals:         0       0       0       0       0       0       0       0       0       0       0       0       
      +0       0
  5673 ;;Total ram usage:        0 bytes
  5674 ;; Hardware stack levels used:    1
  5675 ;; Hardware stack levels required when called:    3
  5676 ;; This function calls:
  5677 ;;		_PIN_MANAGER_IOC
  5678 ;;		_TMR0_ISR
  5679 ;; This function is called by:
  5680 ;;		Interrupt level 1
  5681 ;; This function uses a non-reentrant model
  5682 ;;
  5683                           
  5684  0004                     _INTERRUPT_InterruptManager:	
  5685                           
  5686                           ;incstack = 0
  5687  0004  147E               	bsf	126,0	;set compiler interrupt flag (level 1)
  5688                           
  5689                           ; Regs used in _INTERRUPT_InterruptManager: [wreg+status,2+status,0+pclath+cstack]
  5690  0005  3180               	pagesel	$
  5691  0006  1A8B               	btfsc	11,5	;volatile
  5692  0007  1D0B               	btfss	11,2	;volatile
  5693  0008  280D               	goto	i1l239
  5694  0009  3185  252E  3180   	fcall	_TMR0_ISR
  5695  000C  2812               	goto	i1l243
  5696  000D                     i1l239:	
  5697  000D  198B               	btfsc	11,3	;volatile
  5698  000E  1C0B               	btfss	11,0	;volatile
  5699  000F  2812               	goto	i1l243
  5700  0010  3185  258F         	fcall	_PIN_MANAGER_IOC
  5701  0012                     i1l243:	
  5702  0012  107E               	bcf	126,0	;clear compiler interrupt flag (level 1)
  5703  0013  0009               	retfie
  5704  0014                     __end_of_INTERRUPT_InterruptManager:	
  5705                           
  5706                           	psect	text30
  5707  052E                     __ptext30:	
  5708 ;; *************** function _TMR0_ISR *****************
  5709 ;; Defined at:
  5710 ;;		line 108 in file "01 - SRC/05_MCC_16F1575/tmr0.c"
  5711 ;; Parameters:    Size  Location     Type
  5712 ;;		None
  5713 ;; Auto vars:     Size  Location     Type
  5714 ;;		None
  5715 ;; Return value:  Size  Location     Type
  5716 ;;                  1    wreg      void 
  5717 ;; Registers used:
  5718 ;;		wreg, status,2, status,0, pclath, cstack
  5719 ;; Tracked objects:
  5720 ;;		On entry : 0/0
  5721 ;;		On exit  : 0/0
  5722 ;;		Unchanged: 0/0
  5723 ;; Data sizes:     COMMON   BANK0   BANK1   BANK2   BANK3   BANK4   BANK5   BANK6   BANK7   BANK8   BANK9  BANK10  BANK1
      +1  BANK12
  5724 ;;      Params:         0       0       0       0       0       0       0       0       0       0       0       0       
      +0       0
  5725 ;;      Locals:         0       0       0       0       0       0       0       0       0       0       0       0       
      +0       0
  5726 ;;      Temps:          0       0       0       0       0       0       0       0       0       0       0       0       
      +0       0
  5727 ;;      Totals:         0       0       0       0       0       0       0       0       0       0       0       0       
      +0       0
  5728 ;;Total ram usage:        0 bytes
  5729 ;; Hardware stack levels used:    1
  5730 ;; Hardware stack levels required when called:    1
  5731 ;; This function calls:
  5732 ;;		Absolute function
  5733 ;;		_TMR0_DefaultInterruptHandler
  5734 ;; This function is called by:
  5735 ;;		_INTERRUPT_InterruptManager
  5736 ;; This function uses a non-reentrant model
  5737 ;;
  5738                           
  5739                           
  5740                           ;psect for function _TMR0_ISR
  5741  052E                     _TMR0_ISR:	
  5742                           
  5743                           ;incstack = 0
  5744                           ; Regs used in _TMR0_ISR: [wreg+status,2+status,0+pclath+cstack]
  5745  052E  110B               	bcf	11,2	;volatile
  5746  052F  0020               	movlb	0	; select bank0
  5747  0530  086C               	movf	_timer0ReloadVal,w	;volatile
  5748  0531  0095               	movwf	21	;volatile
  5749  0532  0868               	movf	_TMR0_InterruptHandler,w
  5750  0533  0469               	iorwf	_TMR0_InterruptHandler+1,w
  5751  0534  1903               	btfsc	3,2
  5752  0535  0008               	return
  5753  0536  0869               	movf	_TMR0_InterruptHandler+1,w
  5754  0537  008A               	movwf	10
  5755  0538  0868               	movf	_TMR0_InterruptHandler,w
  5756  0539  000A               	callw
  5757  053A  3185               	pagesel	$
  5758  053B  0008               	return
  5759  053C                     __end_of_TMR0_ISR:	
  5760                           
  5761                           	psect	text31
  5762  0589                     __ptext31:	
  5763 ;; *************** function _TMR0_DefaultInterruptHandler *****************
  5764 ;; Defined at:
  5765 ;;		line 129 in file "01 - SRC/05_MCC_16F1575/tmr0.c"
  5766 ;; Parameters:    Size  Location     Type
  5767 ;;		None
  5768 ;; Auto vars:     Size  Location     Type
  5769 ;;		None
  5770 ;; Return value:  Size  Location     Type
  5771 ;;                  1    wreg      void 
  5772 ;; Registers used:
  5773 ;;		wreg
  5774 ;; Tracked objects:
  5775 ;;		On entry : 0/0
  5776 ;;		On exit  : 0/0
  5777 ;;		Unchanged: 0/0
  5778 ;; Data sizes:     COMMON   BANK0   BANK1   BANK2   BANK3   BANK4   BANK5   BANK6   BANK7   BANK8   BANK9  BANK10  BANK1
      +1  BANK12
  5779 ;;      Params:         0       0       0       0       0       0       0       0       0       0       0       0       
      +0       0
  5780 ;;      Locals:         0       0       0       0       0       0       0       0       0       0       0       0       
      +0       0
  5781 ;;      Temps:          0       0       0       0       0       0       0       0       0       0       0       0       
      +0       0
  5782 ;;      Totals:         0       0       0       0       0       0       0       0       0       0       0       0       
      +0       0
  5783 ;;Total ram usage:        0 bytes
  5784 ;; Hardware stack levels used:    1
  5785 ;; This function calls:
  5786 ;;		Nothing
  5787 ;; This function is called by:
  5788 ;;		_TMR0_Initialize
  5789 ;;		_TMR0_ISR
  5790 ;; This function uses a non-reentrant model
  5791 ;;
  5792                           
  5793                           
  5794                           ;psect for function _TMR0_DefaultInterruptHandler
  5795  0589                     _TMR0_DefaultInterruptHandler:	
  5796                           
  5797                           ;incstack = 0
  5798                           ; Regs used in _TMR0_DefaultInterruptHandler: [wreg]
  5799  0589  3001               	movlw	1
  5800  058A  0020               	movlb	0	; select bank0
  5801  058B  07DC               	addwf	_TimerTick1ms,f	;volatile
  5802  058C  3000               	movlw	0
  5803  058D  3DDD               	addwfc	_TimerTick1ms+1,f	;volatile
  5804  058E  0008               	return
  5805  058F                     __end_of_TMR0_DefaultInterruptHandler:	
  5806                           
  5807                           	psect	text32
  5808  058F                     __ptext32:	
  5809 ;; *************** function _PIN_MANAGER_IOC *****************
  5810 ;; Defined at:
  5811 ;;		line 127 in file "01 - SRC/05_MCC_16F1575/pin_manager.c"
  5812 ;; Parameters:    Size  Location     Type
  5813 ;;		None
  5814 ;; Auto vars:     Size  Location     Type
  5815 ;;		None
  5816 ;; Return value:  Size  Location     Type
  5817 ;;                  1    wreg      void 
  5818 ;; Registers used:
  5819 ;;		wreg, status,2, status,0, pclath, cstack
  5820 ;; Tracked objects:
  5821 ;;		On entry : 0/0
  5822 ;;		On exit  : 0/0
  5823 ;;		Unchanged: 0/0
  5824 ;; Data sizes:     COMMON   BANK0   BANK1   BANK2   BANK3   BANK4   BANK5   BANK6   BANK7   BANK8   BANK9  BANK10  BANK1
      +1  BANK12
  5825 ;;      Params:         0       0       0       0       0       0       0       0       0       0       0       0       
      +0       0
  5826 ;;      Locals:         0       0       0       0       0       0       0       0       0       0       0       0       
      +0       0
  5827 ;;      Temps:          0       0       0       0       0       0       0       0       0       0       0       0       
      +0       0
  5828 ;;      Totals:         0       0       0       0       0       0       0       0       0       0       0       0       
      +0       0
  5829 ;;Total ram usage:        0 bytes
  5830 ;; Hardware stack levels used:    1
  5831 ;; Hardware stack levels required when called:    2
  5832 ;; This function calls:
  5833 ;;		_IOCAF5_ISR
  5834 ;; This function is called by:
  5835 ;;		_INTERRUPT_InterruptManager
  5836 ;; This function uses a non-reentrant model
  5837 ;;
  5838                           
  5839                           
  5840                           ;psect for function _PIN_MANAGER_IOC
  5841  058F                     _PIN_MANAGER_IOC:	
  5842                           
  5843                           ;incstack = 0
  5844                           ; Regs used in _PIN_MANAGER_IOC: [wreg+status,2+status,0+pclath+cstack]
  5845  058F  0027               	movlb	7	; select bank7
  5846  0590  1E93               	btfss	19,5	;volatile
  5847  0591  0008               	return
  5848  0592  3185  253C         	fcall	_IOCAF5_ISR
  5849  0594  0008               	return
  5850  0595                     __end_of_PIN_MANAGER_IOC:	
  5851                           
  5852                           	psect	text33
  5853  053C                     __ptext33:	
  5854 ;; *************** function _IOCAF5_ISR *****************
  5855 ;; Defined at:
  5856 ;;		line 139 in file "01 - SRC/05_MCC_16F1575/pin_manager.c"
  5857 ;; Parameters:    Size  Location     Type
  5858 ;;		None
  5859 ;; Auto vars:     Size  Location     Type
  5860 ;;		None
  5861 ;; Return value:  Size  Location     Type
  5862 ;;                  1    wreg      void 
  5863 ;; Registers used:
  5864 ;;		wreg, status,2, status,0, pclath, cstack
  5865 ;; Tracked objects:
  5866 ;;		On entry : 0/0
  5867 ;;		On exit  : 0/0
  5868 ;;		Unchanged: 0/0
  5869 ;; Data sizes:     COMMON   BANK0   BANK1   BANK2   BANK3   BANK4   BANK5   BANK6   BANK7   BANK8   BANK9  BANK10  BANK1
      +1  BANK12
  5870 ;;      Params:         0       0       0       0       0       0       0       0       0       0       0       0       
      +0       0
  5871 ;;      Locals:         0       0       0       0       0       0       0       0       0       0       0       0       
      +0       0
  5872 ;;      Temps:          0       0       0       0       0       0       0       0       0       0       0       0       
      +0       0
  5873 ;;      Totals:         0       0       0       0       0       0       0       0       0       0       0       0       
      +0       0
  5874 ;;Total ram usage:        0 bytes
  5875 ;; Hardware stack levels used:    1
  5876 ;; Hardware stack levels required when called:    1
  5877 ;; This function calls:
  5878 ;;		Absolute function
  5879 ;;		_IOCAF5_DefaultInterruptHandler
  5880 ;; This function is called by:
  5881 ;;		_PIN_MANAGER_IOC
  5882 ;; This function uses a non-reentrant model
  5883 ;;
  5884                           
  5885                           
  5886                           ;psect for function _IOCAF5_ISR
  5887  053C                     _IOCAF5_ISR:	
  5888                           
  5889                           ;incstack = 0
  5890                           ; Regs used in _IOCAF5_ISR: [wreg+status,2+status,0+pclath+cstack]
  5891  053C  0020               	movlb	0	; select bank0
  5892  053D  086A               	movf	_IOCAF5_InterruptHandler,w
  5893  053E  046B               	iorwf	_IOCAF5_InterruptHandler+1,w
  5894  053F  1903               	btfsc	3,2
  5895  0540  2D46               	goto	i1l1776
  5896  0541  086B               	movf	_IOCAF5_InterruptHandler+1,w
  5897  0542  008A               	movwf	10
  5898  0543  086A               	movf	_IOCAF5_InterruptHandler,w
  5899  0544  000A               	callw
  5900  0545  3185               	pagesel	$
  5901  0546                     i1l1776:	
  5902  0546  0027               	movlb	7	; select bank7
  5903  0547  1293               	bcf	19,5	;volatile
  5904  0548  0008               	return
  5905  0549                     __end_of_IOCAF5_ISR:	
  5906                           
  5907                           	psect	text34
  5908  05A1                     __ptext34:	
  5909 ;; *************** function _IOCAF5_DefaultInterruptHandler *****************
  5910 ;; Defined at:
  5911 ;;		line 161 in file "01 - SRC/05_MCC_16F1575/pin_manager.c"
  5912 ;; Parameters:    Size  Location     Type
  5913 ;;		None
  5914 ;; Auto vars:     Size  Location     Type
  5915 ;;		None
  5916 ;; Return value:  Size  Location     Type
  5917 ;;                  1    wreg      void 
  5918 ;; Registers used:
  5919 ;;		None
  5920 ;; Tracked objects:
  5921 ;;		On entry : 0/0
  5922 ;;		On exit  : 0/0
  5923 ;;		Unchanged: 0/0
  5924 ;; Data sizes:     COMMON   BANK0   BANK1   BANK2   BANK3   BANK4   BANK5   BANK6   BANK7   BANK8   BANK9  BANK10  BANK1
      +1  BANK12
  5925 ;;      Params:         0       0       0       0       0       0       0       0       0       0       0       0       
      +0       0
  5926 ;;      Locals:         0       0       0       0       0       0       0       0       0       0       0       0       
      +0       0
  5927 ;;      Temps:          0       0       0       0       0       0       0       0       0       0       0       0       
      +0       0
  5928 ;;      Totals:         0       0       0       0       0       0       0       0       0       0       0       0       
      +0       0
  5929 ;;Total ram usage:        0 bytes
  5930 ;; Hardware stack levels used:    1
  5931 ;; This function calls:
  5932 ;;		Nothing
  5933 ;; This function is called by:
  5934 ;;		_PIN_MANAGER_Initialize
  5935 ;;		_IOCAF5_ISR
  5936 ;; This function uses a non-reentrant model
  5937 ;;
  5938                           
  5939                           
  5940                           ;psect for function _IOCAF5_DefaultInterruptHandler
  5941  05A1                     _IOCAF5_DefaultInterruptHandler:	
  5942                           
  5943                           ;incstack = 0
  5944                           ; Regs used in _IOCAF5_DefaultInterruptHandler: []
  5945  05A1  0008               	return
  5946  05A2                     __end_of_IOCAF5_DefaultInterruptHandler:	
  5947  007E                     btemp	set	126	;btemp
  5948  007E                     int$flags	set	126
  5949  007E                     wtemp0	set	126


Data Sizes:
    Strings     76
    Constant    256
    Data        2
    BSS         12
    Persistent  45
    Stack       0

Auto Spaces:
    Space          Size  Autos    Used
    COMMON           14     14      14
    BANK0            80     60      79
    BANK1            80      0       8
    BANK2            80      0       0
    BANK3            80      0       0
    BANK4            80      0       0
    BANK5            80      0       0
    BANK6            80      0       0
    BANK7            80      0       0
    BANK8            80      0       0
    BANK9            80      0       0
    BANK10           80      0       0
    BANK11           80      0       0
    BANK12           32      0       0

Pointer List with Targets:

    TMR0_SetInterruptHandler@InterruptHandler	PTR FTN()void  size(2) Largest target is 1
		 -> TMR0_DefaultInterruptHandler(), 

    TMR0_InterruptHandler	PTR FTN()void  size(2) Largest target is 1
		 -> TMR0_DefaultInterruptHandler(), Absolute function(), 

    IOCAF5_SetInterruptHandler@InterruptHandler	PTR FTN()void  size(2) Largest target is 1
		 -> IOCAF5_DefaultInterruptHandler(), 

    IOCAF5_InterruptHandler	PTR FTN()void  size(2) Largest target is 1
		 -> Absolute function(), IOCAF5_DefaultInterruptHandler(), 

    EUSART_SetErrorHandler@interruptHandler	PTR FTN()void  size(2) Largest target is 1
		 -> EUSART_DefaultErrorHandler(), 

    EUSART_ErrorHandler	PTR FTN()void  size(2) Largest target is 1
		 -> Absolute function(), EUSART_DefaultErrorHandler(), 

    EUSART_SetOverrunErrorHandler@interruptHandler	PTR FTN()void  size(2) Largest target is 1
		 -> EUSART_DefaultOverrunErrorHandler(), 

    EUSART_OverrunErrorHandler	PTR FTN()void  size(2) Largest target is 1
		 -> Absolute function(), EUSART_DefaultOverrunErrorHandler(), 

    EUSART_SetFramingErrorHandler@interruptHandler	PTR FTN()void  size(2) Largest target is 1
		 -> EUSART_DefaultFramingErrorHandler(), 

    EUSART_FramingErrorHandler	PTR FTN()void  size(2) Largest target is 1
		 -> Absolute function(), EUSART_DefaultFramingErrorHandler(), 

    Set_SPI_Handler@SPI_Handler	PTR FTN(unsigned char ,)unsigned char  size(2) Largest target is 1
		 -> SoftSPI_Exchange(), 

    NRF_Read_Register@Bytes	PTR unsigned char  size(1) Largest target is 5
		 -> NRF_ADDR_PIPE_0(BANK0[5]), 

    NRF_Write_Register@Bytes	PTR unsigned char  size(1) Largest target is 1
		 -> NRF_REG_CONFIG(BANK0[1]), 

    p_NRF_SPI_Exchange	PTR FTN(unsigned char ,)unsigned char  size(2) Largest target is 1
		 -> Absolute function(), SoftSPI_Exchange(), 

    UART_PNbase@string	PTR unsigned char  size(2) Largest target is 3
		 -> STR_10(CODE[3]), STR_9(CODE[2]), STR_8(CODE[2]), STR_7(CODE[2]), 
		 -> STR_6(CODE[2]), STR_4(CODE[3]), 

    PrintUART@string	PTR unsigned char  size(2) Largest target is 24
		 -> STR_10(CODE[3]), STR_9(CODE[2]), STR_8(CODE[2]), STR_7(CODE[2]), 
		 -> STR_6(CODE[2]), STR_5(CODE[18]), STR_4(CODE[3]), STR_3(CODE[24]), 
		 -> STR_2(CODE[17]), 

    g	PTR const unsigned char  size(2) Largest target is 17
		 -> STR_1(CODE[17]), 


Critical Paths under _main in COMMON

    _SYSTEM_Initialize->_TMR0_Initialize
    _TMR0_Initialize->_TMR0_SetInterruptHandler
    _PIN_MANAGER_Initialize->_IOCAF5_SetInterruptHandler
    _EUSART_Initialize->_EUSART_SetErrorHandler
    _EUSART_Initialize->_EUSART_SetFramingErrorHandler
    _EUSART_Initialize->_EUSART_SetOverrunErrorHandler
    _UART_PNbase->___lldiv
    _NRF_Write_Register->_SoftSPI_Exchange
    _NRF_Read_Register->_SoftSPI_Exchange
    _NRF24L01_Init->_Set_SPI_Handler
    _AppInit->_PrintUART
    _PrintUART->_EUSART_Write

Critical Paths under _INTERRUPT_InterruptManager in COMMON

    None.

Critical Paths under _main in BANK0

    _main->_NRF_SET_PRX
    _NRF_SET_PRX->_UART_PNbase

Critical Paths under _INTERRUPT_InterruptManager in BANK0

    None.

Critical Paths under _main in BANK1

    None.

Critical Paths under _INTERRUPT_InterruptManager in BANK1

    None.

Critical Paths under _main in BANK2

    None.

Critical Paths under _INTERRUPT_InterruptManager in BANK2

    None.

Critical Paths under _main in BANK3

    None.

Critical Paths under _INTERRUPT_InterruptManager in BANK3

    None.

Critical Paths under _main in BANK4

    None.

Critical Paths under _INTERRUPT_InterruptManager in BANK4

    None.

Critical Paths under _main in BANK5

    None.

Critical Paths under _INTERRUPT_InterruptManager in BANK5

    None.

Critical Paths under _main in BANK6

    None.

Critical Paths under _INTERRUPT_InterruptManager in BANK6

    None.

Critical Paths under _main in BANK7

    None.

Critical Paths under _INTERRUPT_InterruptManager in BANK7

    None.

Critical Paths under _main in BANK8

    None.

Critical Paths under _INTERRUPT_InterruptManager in BANK8

    None.

Critical Paths under _main in BANK9

    None.

Critical Paths under _INTERRUPT_InterruptManager in BANK9

    None.

Critical Paths under _main in BANK10

    None.

Critical Paths under _INTERRUPT_InterruptManager in BANK10

    None.

Critical Paths under _main in BANK11

    None.

Critical Paths under _INTERRUPT_InterruptManager in BANK11

    None.

Critical Paths under _main in BANK12

    None.

Critical Paths under _INTERRUPT_InterruptManager in BANK12

    None.

Call Graph Tables:

 ---------------------------------------------------------------------------------
 (Depth) Function   	        Calls       Base Space   Used Autos Params    Refs
 ---------------------------------------------------------------------------------
 (0) _main                                                 9     9      0    6116
                                             51 BANK0      9     9      0
                   Absolute function *
                            _AppInit
                      _NRF24L01_Init
                        _NRF_SET_PRX
                  _PWM1_DutyCycleSet
                 _PWM1_LoadBufferSet
                         _PWM1_Start
                  _SYSTEM_Initialize
                   _SoftSPI_Exchange *
 ---------------------------------------------------------------------------------
 (1) _SYSTEM_Initialize                                    0     0      0     490
                  _EUSART_Initialize
              _OSCILLATOR_Initialize
             _PIN_MANAGER_Initialize
                    _PWM1_Initialize
                    _TMR0_Initialize
                    _TMR1_Initialize
                     _WDT_Initialize
 ---------------------------------------------------------------------------------
 (2) _WDT_Initialize                                       0     0      0       0
 ---------------------------------------------------------------------------------
 (2) _TMR1_Initialize                                      0     0      0       0
 ---------------------------------------------------------------------------------
 (2) _TMR0_Initialize                                      1     1      0      98
                                              2 COMMON     1     1      0
           _TMR0_SetInterruptHandler
 ---------------------------------------------------------------------------------
 (3) _TMR0_SetInterruptHandler                             2     0      2      98
                                              0 COMMON     2     0      2
 ---------------------------------------------------------------------------------
 (2) _PWM1_Initialize                                      0     0      0       0
 ---------------------------------------------------------------------------------
 (2) _PIN_MANAGER_Initialize                               0     0      0      98
         _IOCAF5_SetInterruptHandler
 ---------------------------------------------------------------------------------
 (3) _IOCAF5_SetInterruptHandler                           2     0      2      98
                                              0 COMMON     2     0      2
 ---------------------------------------------------------------------------------
 (2) _OSCILLATOR_Initialize                                0     0      0       0
 ---------------------------------------------------------------------------------
 (2) _EUSART_Initialize                                    0     0      0     294
             _EUSART_SetErrorHandler
      _EUSART_SetFramingErrorHandler
      _EUSART_SetOverrunErrorHandler
 ---------------------------------------------------------------------------------
 (3) _EUSART_SetOverrunErrorHandler                        2     0      2      98
                                              0 COMMON     2     0      2
 ---------------------------------------------------------------------------------
 (3) _EUSART_SetFramingErrorHandler                        2     0      2      98
                                              0 COMMON     2     0      2
 ---------------------------------------------------------------------------------
 (3) _EUSART_SetErrorHandler                               2     0      2      98
                                              0 COMMON     2     0      2
 ---------------------------------------------------------------------------------
 (1) _PWM1_Start                                           0     0      0       0
 ---------------------------------------------------------------------------------
 (1) _PWM1_LoadBufferSet                                   0     0      0       0
 ---------------------------------------------------------------------------------
 (1) _PWM1_DutyCycleSet                                    2     0      2     120
                                              0 COMMON     2     0      2
 ---------------------------------------------------------------------------------
 (1) _NRF_SET_PRX                                          6     6      0    4451
                                             45 BANK0      6     6      0
                  _NRF_Read_Register
                 _NRF_Write_Register
                          _PrintUART
                        _UART_PNbase
 ---------------------------------------------------------------------------------
 (2) _UART_PNbase                                         45    38      7    2724
                                              0 BANK0     45    38      7
                       _EUSART_Write
                          _PrintUART
                            ___lldiv
                            ___llmod
 ---------------------------------------------------------------------------------
 (3) ___llmod                                             10     2      8     311
                                              0 COMMON    10     2      8
 ---------------------------------------------------------------------------------
 (3) ___lldiv                                             14     6      8     314
                                              0 COMMON    14     6      8
 ---------------------------------------------------------------------------------
 (2) _NRF_Write_Register                                   6     4      2     644
                                              5 COMMON     6     4      2
                   Absolute function *
                   _SoftSPI_Exchange *
 ---------------------------------------------------------------------------------
 (2) _NRF_Read_Register                                    6     4      2     644
                                              5 COMMON     6     4      2
                   Absolute function *
                   _SoftSPI_Exchange *
 ---------------------------------------------------------------------------------
 (1) _SoftSPI_Exchange                                     5     4      1     401
                                              0 COMMON     5     4      1
 ---------------------------------------------------------------------------------
 (7) Absolute function(Fake)                               0     0      0       0
 ---------------------------------------------------------------------------------
 (1) _NRF24L01_Init                                        1     1      0      98
                                              2 COMMON     1     1      0
                    _Set_SPI_Handler
 ---------------------------------------------------------------------------------
 (2) _Set_SPI_Handler                                      2     0      2      98
                                              0 COMMON     2     0      2
 ---------------------------------------------------------------------------------
 (1) _AppInit                                              0     0      0     438
                          _PrintUART
 ---------------------------------------------------------------------------------
 (3) _PrintUART                                            5     3      2     438
                                              1 COMMON     5     3      2
                       _EUSART_Write
 ---------------------------------------------------------------------------------
 (4) _EUSART_Write                                         1     1      0      22
                                              0 COMMON     1     1      0
 ---------------------------------------------------------------------------------
 Estimated maximum stack depth 7
 ---------------------------------------------------------------------------------
 (Depth) Function   	        Calls       Base Space   Used Autos Params    Refs
 ---------------------------------------------------------------------------------
 (5) _INTERRUPT_InterruptManager                           0     0      0       0
                    _PIN_MANAGER_IOC
                           _TMR0_ISR
 ---------------------------------------------------------------------------------
 (6) _TMR0_ISR                                             0     0      0       0
                   Absolute function *
       _TMR0_DefaultInterruptHandler *
 ---------------------------------------------------------------------------------
 (7) _TMR0_DefaultInterruptHandler                         0     0      0       0
 ---------------------------------------------------------------------------------
 (6) _PIN_MANAGER_IOC                                      0     0      0       0
                         _IOCAF5_ISR
 ---------------------------------------------------------------------------------
 (7) _IOCAF5_ISR                                           0     0      0       0
                   Absolute function *
     _IOCAF5_DefaultInterruptHandler *
 ---------------------------------------------------------------------------------
 (8) _IOCAF5_DefaultInterruptHandler                       0     0      0       0
 ---------------------------------------------------------------------------------
 (7) Absolute function(Fake)                               0     0      0       0
 ---------------------------------------------------------------------------------
 Estimated maximum stack depth 8
 ---------------------------------------------------------------------------------

 Call Graph Graphs:

 _main (ROOT)
   Absolute function(Fake) *
   _AppInit *
     _PrintUART
       _EUSART_Write
   _NRF24L01_Init *
     _Set_SPI_Handler
   _NRF_SET_PRX *
     _NRF_Read_Register
       Absolute function(Fake) *
       _SoftSPI_Exchange *
     _NRF_Write_Register
       Absolute function(Fake) *
       _SoftSPI_Exchange *
     _PrintUART
       _EUSART_Write
     _UART_PNbase
       _EUSART_Write
       _PrintUART
         _EUSART_Write
       ___lldiv
       ___llmod
   _PWM1_DutyCycleSet *
   _PWM1_LoadBufferSet *
   _PWM1_Start *
   _SYSTEM_Initialize *
     _EUSART_Initialize
       _EUSART_SetErrorHandler
       _EUSART_SetFramingErrorHandler
       _EUSART_SetOverrunErrorHandler
     _OSCILLATOR_Initialize
     _PIN_MANAGER_Initialize
       _IOCAF5_SetInterruptHandler
     _PWM1_Initialize
     _TMR0_Initialize
       _TMR0_SetInterruptHandler
     _TMR1_Initialize
     _WDT_Initialize
   _SoftSPI_Exchange *

 _INTERRUPT_InterruptManager (ROOT)
   _PIN_MANAGER_IOC
     _IOCAF5_ISR
       Absolute function(Fake) *
       _IOCAF5_DefaultInterruptHandler *
   _TMR0_ISR
     Absolute function(Fake) *
     _TMR0_DefaultInterruptHandler *

 Address spaces:
Name               Size   Autos  Total    Cost      Usage
BIGRAM             3E0      0       0       0        0.0%
NULL                 0      0       0       0        0.0%
CODE                 0      0       0       0        0.0%
BITCOMMON            E      0       0       1        0.0%
BITSFR0              0      0       0       1        0.0%
SFR0                 0      0       0       1        0.0%
COMMON               E      E       E       2      100.0%
BITSFR1              0      0       0       2        0.0%
SFR1                 0      0       0       2        0.0%
BITSFR2              0      0       0       3        0.0%
SFR2                 0      0       0       3        0.0%
STACK                0      0       0       3        0.0%
BITBANK0            50      0       0       4        0.0%
BITSFR3              0      0       0       4        0.0%
SFR3                 0      0       0       4        0.0%
BANK0               50     3C      4F       5       98.8%
BITSFR4              0      0       0       5        0.0%
SFR4                 0      0       0       5        0.0%
BITBANK1            50      0       0       6        0.0%
BITSFR5              0      0       0       6        0.0%
SFR5                 0      0       0       6        0.0%
BANK1               50      0       8       7       10.0%
BITSFR6              0      0       0       7        0.0%
SFR6                 0      0       0       7        0.0%
BITBANK2            50      0       0       8        0.0%
BITSFR7              0      0       0       8        0.0%
SFR7                 0      0       0       8        0.0%
BANK2               50      0       0       9        0.0%
BITSFR8              0      0       0       9        0.0%
SFR8                 0      0       0       9        0.0%
BITBANK3            50      0       0      10        0.0%
BITSFR9              0      0       0      10        0.0%
SFR9                 0      0       0      10        0.0%
BANK3               50      0       0      11        0.0%
BITSFR10             0      0       0      11        0.0%
SFR10                0      0       0      11        0.0%
BITBANK4            50      0       0      12        0.0%
BITSFR11             0      0       0      12        0.0%
SFR11                0      0       0      12        0.0%
BANK4               50      0       0      13        0.0%
BITSFR12             0      0       0      13        0.0%
SFR12                0      0       0      13        0.0%
BITBANK5            50      0       0      14        0.0%
BITSFR13             0      0       0      14        0.0%
SFR13                0      0       0      14        0.0%
BANK5               50      0       0      15        0.0%
BITSFR14             0      0       0      15        0.0%
SFR14                0      0       0      15        0.0%
BITBANK6            50      0       0      16        0.0%
BITSFR15             0      0       0      16        0.0%
SFR15                0      0       0      16        0.0%
BANK6               50      0       0      17        0.0%
BITSFR16             0      0       0      17        0.0%
SFR16                0      0       0      17        0.0%
BITBANK7            50      0       0      18        0.0%
BITSFR17             0      0       0      18        0.0%
SFR17                0      0       0      18        0.0%
BANK7               50      0       0      19        0.0%
BITSFR18             0      0       0      19        0.0%
SFR18                0      0       0      19        0.0%
BITSFR19             0      0       0      20        0.0%
SFR19                0      0       0      20        0.0%
ABS                  0      0      65      20        0.0%
BITBANK8            50      0       0      21        0.0%
BITSFR20             0      0       0      21        0.0%
SFR20                0      0       0      21        0.0%
BANK8               50      0       0      22        0.0%
BITSFR21             0      0       0      22        0.0%
SFR21                0      0       0      22        0.0%
BITBANK9            50      0       0      23        0.0%
BITSFR22             0      0       0      23        0.0%
SFR22                0      0       0      23        0.0%
BANK9               50      0       0      24        0.0%
BITSFR23             0      0       0      24        0.0%
SFR23                0      0       0      24        0.0%
BITBANK10           50      0       0      25        0.0%
BITSFR24             0      0       0      25        0.0%
SFR24                0      0       0      25        0.0%
BANK10              50      0       0      26        0.0%
BITSFR25             0      0       0      26        0.0%
SFR25                0      0       0      26        0.0%
BITBANK11           50      0       0      27        0.0%
BITSFR26             0      0       0      27        0.0%
SFR26                0      0       0      27        0.0%
BANK11              50      0       0      28        0.0%
BITSFR27             0      0       0      28        0.0%
SFR27                0      0       0      28        0.0%
BITBANK12           20      0       0      29        0.0%
BITSFR28             0      0       0      29        0.0%
SFR28                0      0       0      29        0.0%
BANK12              20      0       0      30        0.0%
BITSFR29             0      0       0      30        0.0%
SFR29                0      0       0      30        0.0%
BITSFR30             0      0       0      31        0.0%
SFR30                0      0       0      31        0.0%
DATA                 0      0      65      31        0.0%
BITSFR31             0      0       0      32        0.0%
SFR31                0      0       0      32        0.0%


Microchip Technology PIC Macro Assembler V2.05 build -831301201 
Symbol Table                                                                                   Mon Feb 01 10:28:27 2021

                                            _g 006D                        NRF_Write_Register@Bytes 0075  
                                  __CFG_CP$OFF 0000                                             l95 03FB  
                                           l89 0427                              SoftSPI_Exchange@i 0074  
                              _timer0ReloadVal 006C                       NRF_Write_Register@Length 0076  
                                          l207 054A                                            u414 0375  
                                          u415 0374                                            u424 0391  
                                          u425 0390                                            u525 0334  
                                          u455 02EA                                            u545 034D  
                                          u475 02F6                                            u555 0358  
                                          u485 030A                                            u495 0316  
                                          u675 028F                                            u685 02C0  
                                          u695 02CE                                            u767 0280  
                                          u777 0381                                            u787 0387  
                              _timer1ReloadVal 00A0                       NRF_Write_Register@Status 007A  
               ?_EUSART_SetFramingErrorHandler 0070                                   __CFG_BORV$LO 0000  
                   __size_of_NRF_Read_Register 002E                                            wreg 0009  
           __end_of_IOCAF5_SetInterruptHandler 056B                     _IOCAF5_SetInterruptHandler 0565  
                                _NRF24L01_Init 046D                                   __CFG_LVP$OFF 0000  
                                         l1600 0331                                           l1602 033F  
                                         l1610 0362                                           l1534 044E  
                                         l1606 0357                                           l1624 024A  
                                         l1616 01F6                                           l1546 0370  
                                         l1662 03E1                                           l1646 0410  
                                         l1590 0320                                           l1576 02E7  
                                         l1912 02C8                                           l1586 0315  
                                         l1578 02F5                                           l1908 02BA  
                                         l1896 0288                                           STR_1 051D  
                                         STR_2 050C                                           STR_3 048C  
                                         STR_4 051A                                           STR_5 04E8  
                                         STR_6 04F8                                           STR_7 04F8  
                                         STR_8 04F8                                           STR_9 04F8  
                      __end_of_PWM1_Initialize 04BC                                           _LATA 010C  
                                         _LATC 010E                                           _TMR0 0015  
                                         _WPUA 020C                                           _WPUC 020E  
                                 __CFG_WRT$OFF 0000                              UART_PNbase@string 0025  
                                         _main 0266                                           fsr0h 0005  
                                         fsr1h 0007                                           indf0 0000  
                                         fsr0l 0004                                           indf1 0001  
                                         fsr1l 0006                                           btemp 007E  
                                __CFG_BOREN$ON 0000                                           start 0014  
                              __end_of_AppInit 055F                                  __CFG_MCLRE$ON 0000  
                     __size_of_Set_SPI_Handler 0006                        __end_of_TMR0_Initialize 04D3  
                              __end_of_SineTab 012D                 ??_TMR0_DefaultInterruptHandler 0070  
                                ?_EUSART_Write 0070                 __size_of_OSCILLATOR_Initialize 0007  
                          __size_of_IOCAF5_ISR 000D                  __end_of_OSCILLATOR_Initialize 0558  
                                        ?_main 0070                                          STR_10 051A  
                                __CFG_WDTE$OFF 0000                                __end_of___lldiv 0329  
                                        _T1CON 0018                                __end_of___llmod 036B  
                                        i1l243 0012                                          i1l239 000D  
                                        _RCREG 0199                                          _RCSTA 019D  
                                        _TMR1H 0017                                          _TMR1L 0016  
                                        _TRISA 008C                                          _TRISC 008E  
                                        _RXPPS 0E15                                          _TXREG 019A  
                                        _TXSTA 019E              __size_of_TMR0_SetInterruptHandler 0006  
                    ?_TMR0_SetInterruptHandler 0070                                 ?_NRF24L01_Init 0070  
                             __end_of_TMR0_ISR 053C                                    ?_PWM1_Start 0070  
                      __end_of_PIN_MANAGER_IOC 0595                                 _WDT_Initialize 0595  
                      __end_of_TMR1_Initialize 050C                                          pclath 000A  
                                        status 0003                                          wtemp0 007E  
                              __initialization 0016                                 _NRF_REG_CONFIG 0067  
                                 __end_of_main 02D7                                 ??_EUSART_Write 0070  
                               _NRF_REG_STATUS 0061                    ?_INTERRUPT_InterruptManager 0070  
                                       ??_main 0053                                 __CFG_PLLEN$OFF 0000  
                                 ?_NRF_SET_PRX 0070                         __end_of_WDT_Initialize 0599  
            _EUSART_DefaultFramingErrorHandler 0000                     _EUSART_OverrunErrorHandler 00A4  
                             ___llmod@dividend 0074                               _SoftSPI_Exchange 036B  
                                       _ANSELA 018C                                         _ANSELC 018E  
                                       _BORCON 0116                                         _T1GCON 0019  
                                       _RC3PPS 0EA3                                         _RC4PPS 0EA4  
                             ?_PWM1_Initialize 0070                                         _ODCONA 028C  
                                       _ODCONC 028E                                         i1l1776 0546  
                                       _INLVLA 038C                                         _INLVLC 038E  
                                    ??_AppInit 0076                                         _OSCCON 0099  
                               main@Timeout_1s 0055                                         _SPBRGH 019C  
                                       _SPBRGL 019B                                         _WDTCON 0097  
                                 ?_UART_PNbase 0020                                 __CFG_PWRTE$OFF 0000  
                                   PrintUART@i 0074                PWM1_DutyCycleSet@dutyCycleCount 0070  
                               __CFG_STVREN$ON 0000                            __size_of_PWM1_Start 0003  
                           _p_NRF_SPI_Exchange 005E                                      ??___lldiv 0078  
                                    ??___llmod 0078                               ?_TMR0_Initialize 0070  
                  __size_of_NRF_Write_Register 002C                              ??_Set_SPI_Handler 0072  
                           __size_of_PrintUART 0021                                ??_NRF24L01_Init 0072  
                              ?_WDT_Initialize 0070       TMR0_SetInterruptHandler@InterruptHandler 0070  
   IOCAF5_SetInterruptHandler@InterruptHandler 0070                               ?_PIN_MANAGER_IOC 0070  
                                 ??_IOCAF5_ISR 0070                               ?_TMR1_Initialize 0070  
                            _SYSTEM_Initialize 04D3                             _PWM1_LoadBufferSet 059C  
                      __end_of__initialization 0029                                 UART_PNbase@buf 002C  
                           ?_SYSTEM_Initialize 0070                            ?_PWM1_LoadBufferSet 0070  
                   NRF_Write_Register@Register 0079                                 __pcstackCOMMON 0070  
                                 __pidataBANK0 059F                            ??_SYSTEM_Initialize 0073  
                                    ?_TMR0_ISR 0070                             __end_of_IOCAF5_ISR 0549  
                               _OPTION_REGbits 0095                           ??_PWM1_LoadBufferSet 0070  
                  ?_IOCAF5_SetInterruptHandler 0070                ??_EUSART_SetOverrunErrorHandler 0072  
                    __end_of_SYSTEM_Initialize 04E8                                     __pbssBANK0 005C  
                         __end_of_EUSART_Write 0551               ??_IOCAF5_DefaultInterruptHandler 0070  
              ?_IOCAF5_DefaultInterruptHandler 0070                              __end_of_PrintUART 046D  
                      _IOCAF5_InterruptHandler 006A                                     __pmaintext 0266  
             __end_of_TMR0_SetInterruptHandler 0565                                     ??_TMR0_ISR 0070  
                              __CFG_PPS1WAY$ON 0000                                     __pintentry 0004  
                                      _BAUDCON 019F                                        _PWM1DCH 0D94  
                                 ??_PWM1_Start 0070                                        _PWM1DCL 0D93  
                                      _OSCTUNE 0098                                        _PWM1CON 0D9B  
                                      _PWM1OFH 0D98                                        _PWM1OFL 0D97  
                                      _PWM1PHH 0D92                                        _PWM1PHL 0D91  
                                      _PWM1PRH 0D96                                        _PWM1PRL 0D95  
                                      _SLRCONA 030C                                        _SLRCONC 030E  
                     ??_EUSART_SetErrorHandler 0072                           __size_of_NRF_SET_PRX 00C7  
                                      _AppInit 0558                           __size_of_UART_PNbase 0072  
                                      _SineTab 002D                       __end_of_SoftSPI_Exchange 03A0  
                                      ___lldiv 02D7                                        ___llmod 0329  
                           __end_of_PWM1_Start 059C                                        __ptext1 04D3  
                                      __ptext2 0595                                        __ptext3 04FA  
                                      __ptext4 04BC                                        __ptext5 055F  
                                      __ptext6 04A4                                        __ptext7 03A0  
                                      __ptext8 0565                                        __ptext9 0551  
                                    _T1CONbits 0018                          _OSCILLATOR_Initialize 0551  
                     ??_PIN_MANAGER_Initialize 0072                                      _IOCAFbits 0393  
                                    _IOCANbits 0392                                      _IOCAPbits 0391  
                   __size_of_SYSTEM_Initialize 0015                           end_of_initialization 0029  
        __end_of_EUSART_SetOverrunErrorHandler 0571         __size_of_EUSART_SetOverrunErrorHandler 0006  
                _EUSART_SetOverrunErrorHandler 056B                              main@Timeout_100ms 0057  
                            _EUSART_Initialize 042B                                ___lldiv@divisor 0070  
                              ___lldiv@counter 007D                                _Set_SPI_Handler 0583  
                           ?_EUSART_Initialize 0070                                      _RCSTAbits 019D  
                                    _PWM1LDCON 0D9F                                      _PWM1OFCON 0DA0  
                       SoftSPI_Exchange@RxByte 0073                         SoftSPI_Exchange@TxByte 0070  
                          ??_EUSART_Initialize 0072                               ??_WDT_Initialize 0070  
                     _TMR0_SetInterruptHandler 055F                                      _PORTCbits 000E  
                             __CFG_FOSC$INTOSC 0000                          __size_of_EUSART_Write 0008  
                              UART_PNbase@Base 0024                                UART_PNbase@Nbre 0020  
                              PrintUART@string 0071                __size_of_EUSART_SetErrorHandler 0006  
                    __end_of_EUSART_Initialize 044C                                      _TXSTAbits 019E  
                     __size_of_PWM1_Initialize 0018                     __end_of_NRF_Write_Register 042B  
                   _EUSART_DefaultErrorHandler 0000                                   _EUSART_Write 0549  
                            __size_of_TMR0_ISR 000E                         ?_OSCILLATOR_Initialize 0070  
                          start_initialization 0016                          __end_of_NRF24L01_Init 048C  
                     __size_of_TMR0_Initialize 0017                __size_of_PIN_MANAGER_Initialize 0031  
                                _PWM1LDCONbits 0D9F                        __end_of_Set_SPI_Handler 0589  
                              ___llmod@divisor 0070                                ___llmod@counter 0079  
                     __size_of_PIN_MANAGER_IOC 0006                 ?_EUSART_SetOverrunErrorHandler 0070  
                             __CFG_LPBOREN$OFF 0000                       __size_of_TMR1_Initialize 0012  
                   _EUSART_FramingErrorHandler 00A6                                      _PrintUART 044C  
                       _EUSART_SetErrorHandler 0577                                    __pdataBANK0 006D  
       __end_of_IOCAF5_DefaultInterruptHandler 05A2        __size_of_IOCAF5_DefaultInterruptHandler 0001  
               _IOCAF5_DefaultInterruptHandler 05A1                                      ___latbits 0002  
                                __pcstackBANK0 0020                    __size_of_PWM1_LoadBufferSet 0003  
                                     ?_AppInit 0070                     __size_of_EUSART_Initialize 0021  
                        _TMR0_InterruptHandler 0068                                      __pnvBANK0 0068  
                                    __pnvBANK1 00A0                         _PIN_MANAGER_Initialize 03A0  
                                   ?_PrintUART 0071                                       ?___lldiv 0070  
                                     ?___llmod 0070                              ?_SoftSPI_Exchange 0070  
                            ??_PWM1_Initialize 0070                   ??_INTERRUPT_InterruptManager 0070  
                           ??_SoftSPI_Exchange 0071                                  ??_NRF_SET_PRX 004D  
                            _PWM1_DutyCycleSet 057D                               ?_Set_SPI_Handler 0070  
                                ??_UART_PNbase 0027                              ??_TMR0_Initialize 0072  
                           ?_PWM1_DutyCycleSet 0070                                       _LATAbits 010C  
       EUSART_SetErrorHandler@interruptHandler 0070                                       _LATCbits 010E  
                    NRF_Read_Register@Register 0079                              _eusartRxLastError 0060  
          __size_of_INTERRUPT_InterruptManager 0010                               main@Timeout_10ms 0059  
                   ??_TMR0_SetInterruptHandler 0072                                       _PIR1bits 0011  
              ??_EUSART_SetFramingErrorHandler 0072                            ??_PWM1_DutyCycleSet 0072  
                                     _PWM1INTE 0D9C                                       _PWM1INTF 0D9D  
                                     _PWM1TMRH 0D9A                                       _PWM1TMRL 0D99  
                                     _TMR0_ISR 052E              _EUSART_DefaultOverrunErrorHandler 0000  
                            ??_PIN_MANAGER_IOC 0070                              ??_TMR1_Initialize 0070  
                                    main@cnter 005B                      __end_of_PWM1_DutyCycleSet 0583  
                      NRF_Read_Register@Length 0076                            __end_of_NRF_SET_PRX 01F4  
                      NRF_Read_Register@Status 007A                               __size_of_AppInit 0007  
                                 _PWM1INTFbits 0D9D                            __end_of_UART_PNbase 0266  
                                  ??_PrintUART 0073                        ??_OSCILLATOR_Initialize 0070  
                          _EUSART_ErrorHandler 00A2                               __size_of___lldiv 0052  
                             __size_of___llmod 0042                                   UART_PNbase@i 004C  
                           _NRF_Write_Register 03FF                                       __ptext10 042B  
                                     __ptext11 056B                                       __ptext20 02D7  
                                     __ptext12 0571                                       __ptext21 03FF  
                                     __ptext13 0577                                     _T1GCONbits 0019  
                                     __ptext30 052E                                       __ptext22 03D1  
                                     __ptext14 0599                                       __ptext31 0589  
                                     __ptext23 036B                                       __ptext15 059C  
                                     __ptext32 058F                                       __ptext24 046D  
                                     __ptext16 057D                                       __ptext33 053C  
                                     __ptext25 0583                                       __ptext17 012D  
                                     __ptext34 05A1                                       __ptext26 0558  
                                     __ptext18 01F4                                       __ptext27 044C  
                                     __ptext19 0329                                       __ptext28 0549  
                 ??_IOCAF5_SetInterruptHandler 0072                              _NRF_Read_Register 03D1  
                                 _TimerTick1ms 005C                                     _IOCAF5_ISR 053C  
                           ?_NRF_Read_Register 0075                            ?_NRF_Write_Register 0075  
                                __size_of_main 0071           __end_of_TMR0_DefaultInterruptHandler 058F  
        __size_of_TMR0_DefaultInterruptHandler 0006                   _TMR0_DefaultInterruptHandler 0589  
                      ?_EUSART_SetErrorHandler 0070                            ??_NRF_Read_Register 0077  
EUSART_SetOverrunErrorHandler@interruptHandler 0070                                       int$flags 007E  
           __end_of_INTERRUPT_InterruptManager 0014                     _INTERRUPT_InterruptManager 0004  
        __end_of_EUSART_SetFramingErrorHandler 0577         __size_of_EUSART_SetFramingErrorHandler 0006  
                _EUSART_SetFramingErrorHandler 0571                           ??_NRF_Write_Register 0077  
          __size_of_IOCAF5_SetInterruptHandler 0006                         NRF_Read_Register@Bytes 0075  
                                   _INTCONbits 000B                      __end_of_NRF_Read_Register 03FF  
                                  _PWM1CONbits 0D9B                                    _NRF_SET_PRX 012D  
                   __size_of_PWM1_DutyCycleSet 0006                        __size_of_WDT_Initialize 0004  
                                     intlevel1 0000                               ___lldiv@dividend 0074  
                                  _UART_PNbase 01F4                        ?_PIN_MANAGER_Initialize 0070  
               __end_of_EUSART_SetErrorHandler 057D                              __CFG_CLKOUTEN$OFF 0000  
                   Set_SPI_Handler@SPI_Handler 0070                                _PWM1_Initialize 04A4  
                ?_TMR0_DefaultInterruptHandler 0070                         __size_of_NRF24L01_Init 001F  
EUSART_SetFramingErrorHandler@interruptHandler 0070                                     _PWM1CLKCON 0D9E  
                                __pstringtext1 002D                                  __pstringtext2 048C  
                                __pstringtext3 04E8                                  __pstringtext4 050C  
                                __pstringtext5 051D                                  __pstringtext6 0000  
                                   _OPTION_REG 0095                     __end_of_PWM1_LoadBufferSet 059F  
                             ___lldiv@quotient 0079                                _TMR0_Initialize 04BC  
                              _NRF_ADDR_PIPE_0 0062                                     _PWM1_Start 0599  
                    __size_of_SoftSPI_Exchange 0035                                    ?_IOCAF5_ISR 0070  
                           EUSART_Write@txData 0070                 __end_of_PIN_MANAGER_Initialize 03D1  
                              _PIN_MANAGER_IOC 058F                                _TMR1_Initialize 04FA  
